ccopy_reg
_reconstructor
p0
(csklearn.pipeline
Pipeline
p1
c__builtin__
object
p2
Ntp3
Rp4
(dp5
S'steps'
p6
(lp7
(S'imputer'
p8
g0
(csklearn.preprocessing.imputation
Imputer
p9
g2
Ntp10
Rp11
(dp12
S'copy'
p13
I01
sS'strategy'
p14
S'median'
p15
sS'axis'
p16
I0
sS'verbose'
p17
I0
sS'missing_values'
p18
S'NaN'
p19
sbtp20
a(S'extratreesclassifier'
p21
g0
(csklearn.ensemble.forest
ExtraTreesClassifier
p22
g2
Ntp23
Rp24
(dp25
S'warm_start'
p26
I00
sS'base_estimator'
p27
g0
(csklearn.tree.tree
ExtraTreeClassifier
p28
g2
Ntp29
Rp30
(dp31
S'presort'
p32
I00
sS'splitter'
p33
S'random'
p34
sS'tree_'
p35
NsS'n_features_'
p36
NsS'n_outputs_'
p37
NsS'n_classes_'
p38
NsS'random_state'
p39
NsS'classes_'
p40
NsS'max_features_'
p41
NsS'min_samples_leaf'
p42
I1
sS'max_features'
p43
S'auto'
p44
sS'min_weight_fraction_leaf'
p45
F0.0
sS'criterion'
p46
S'gini'
p47
sS'max_leaf_nodes'
p48
NsS'min_samples_split'
p49
I2
sS'max_depth'
p50
NsS'class_weight'
p51
NsbsS'estimators_'
p52
(lp53
sS'n_jobs'
p54
I-1
sg17
I0
sg39
I20160308
sS'bootstrap'
p55
I00
sS'oob_score'
p56
I00
sg42
I3
sS'n_estimators'
p57
I30
sg43
S'sqrt'
p58
sS'estimator_params'
p59
(S'criterion'
p60
S'max_depth'
p61
S'min_samples_split'
p62
S'min_samples_leaf'
p63
S'min_weight_fraction_leaf'
p64
S'max_features'
p65
S'max_leaf_nodes'
p66
S'random_state'
p67
tp68
sg46
g47
sg45
F0.0
sg48
Nsg49
I2
sg50
Nsg51
S'balanced'
p69
sbtp70
asb.