(dp0
S'METTS MARK'
p1
(dp2
S'to_messages'
p3
F6.693323668269949
sS'deferral_payments'
p4
F0.0
sS'expenses'
p5
F11.45422586411145
sS'poi'
p6
I00
sS'deferred_income'
p7
F0.0
sS'email_address'
p8
S'mark.metts@enron.com'
p9
sS'long_term_incentive'
p10
F0.0
sS'restricted_stock_deferred'
p11
F0.0
sS'sent_to_poi_ratio'
p12
F0.034482758620689655
sS'shared_receipt_with_poi'
p13
F6.553933404025811
sS'loan_advances'
p14
F0.0
sS'from_messages'
p15
F3.367295829986474
sS'other'
p16
F7.461640392208575
sS'recieved_from_poi_ratio'
p17
F0.04708798017348203
sS'director_fees'
p18
F0.0
sS'bonus'
p19
F13.304684934198283
sS'total_stock_value'
p20
F13.279473103504184
sS'from_poi_to_this_person'
p21
F3.6375861597263857
sS'shared_receipt_with_poi_ratio'
p22
F0.8698884758364313
sS'from_this_person_to_poi'
p23
F0.0
sS'restricted_stock'
p24
F13.279473103504184
sS'salary'
p25
F12.80980920958944
sS'total_payments'
p26
F13.87550156732602
sS'exercised_stock_options'
p27
F0.0
ssS'BAXTER JOHN C'
p28
(dp29
g3
Fnan
sg4
F14.074590974963343
sg5
F9.323669057283185
sg6
I00
sg7
F14.141972140484336
sg8
S'NaN'
p30
sg10
F14.276760359011964
sg11
F0.0
sg12
Fnan
sg13
Fnan
sg14
F0.0
sg15
Fnan
sg16
F14.793950584045092
sg17
Fnan
sg18
F0.0
sg19
F13.997832114758229
sg20
F16.178556306391826
sg21
Fnan
sg22
Fnan
sg23
Fnan
sg24
F15.18737987662522
sg25
F12.495385886902291
sg26
F15.544391105934508
sg27
F15.714709979322754
ssS'ELLIOTT STEVEN'
p31
(dp32
g3
Fnan
sg4
F0.0
sg5
F11.271516104849127
sg6
I00
sg7
F12.901040667352055
sg8
S'steven.elliott@enron.com'
p33
sg10
F0.0
sg11
F0.0
sg12
Fnan
sg13
Fnan
sg14
F0.0
sg15
Fnan
sg16
F9.469700127423375
sg17
Fnan
sg18
F0.0
sg19
F12.765688433465597
sg20
F15.714439156322342
sg21
Fnan
sg22
Fnan
sg23
Fnan
sg24
F14.396826890898076
sg25
F12.049073746708748
sg26
F12.2630435417898
sg27
F15.402773206625037
ssS'CORDES WILLIAM R'
p34
(dp35
g3
F6.638567789166521
sg4
F0.0
sg5
F0.0
sg6
I00
sg7
F0.0
sg8
S'bill.cordes@enron.com'
p36
sg10
F0.0
sg11
F0.0
sg12
F0.0
sg13
F4.060443010546419
sg14
F0.0
sg15
F2.4849066497880004
sg16
F0.0
sg17
F0.013089005235602094
sg18
F0.0
sg19
F0.0
sg20
F13.852984554187671
sg21
F2.302585092994046
sg22
F0.07591623036649214
sg23
F0.0
sg24
F12.864460147708321
sg25
F0.0
sg26
F0.0
sg27
F13.387569753090926
ssS'HANNON KEVIN P'
p37
(dp38
g3
F6.951772164398911
sg4
F0.0
sg5
F10.435262205052501
sg6
I01
sg7
F14.952385087777575
sg8
S'kevin.hannon@enron.com'
p39
sg10
F14.296089941257193
sg11
F0.0
sg12
F0.65625
sg13
F6.942156705699469
sg14
F0.0
sg15
F3.4657359027997265
sg16
F9.336973022909548
sg17
F0.03062200956937799
sg18
F0.0
sg19
F14.22097566607244
sg20
F15.670411479133039
sg21
F3.4657359027997265
sg22
F0.9904306220095693
sg23
F3.044522437723423
sg24
F13.656589852967581
sg25
F12.40202175729319
sg26
F12.573081015248674
sg27
F15.527144163283632
ssS'MORDAUNT KRISTINA M'
p40
(dp41
g3
Fnan
sg4
F0.0
sg5
F10.463617493986263
sg6
I00
sg7
F0.0
sg8
S'kristina.mordaunt@enron.com'
p42
sg10
F0.0
sg11
F0.0
sg12
Fnan
sg13
Fnan
sg14
F0.0
sg15
Fnan
sg16
F7.252053951852814
sg17
Fnan
sg18
F0.0
sg19
F12.691580461311874
sg20
F12.247742280701566
sg21
Fnan
sg22
Fnan
sg23
Fnan
sg24
F12.247742280701566
sg25
F12.495352191341677
sg26
F13.35112631037754
sg27
F0.0
ssS'MEYER ROCKFORD G'
p43
(dp44
g3
F5.44673737166631
sg4
F14.42973735913794
sg5
F0.0
sg6
I00
sg7
F0.0
sg8
S'rockford.meyer@enron.com'
p45
sg10
F0.0
sg11
F0.0
sg12
F0.0
sg13
F3.091042453358316
sg14
F0.0
sg15
F3.332204510175204
sg16
F0.0
sg17
F0.0
sg18
F0.0
sg19
F0.0
sg20
F13.77038033802055
sg21
F0.0
sg22
F0.09482758620689655
sg23
F0.0
sg24
F13.044150993665514
sg25
F0.0
sg26
F14.42973735913794
sg27
F13.109255847840283
ssS'MCMAHON JEFFREY'
p46
(dp47
g3
F7.764296006450518
sg4
F0.0
sg5
F11.828524215416218
sg6
I00
sg7
F0.0
sg8
S'jeffrey.mcmahon@enron.com'
p48
sg10
F13.451468543679974
sg11
F0.0
sg12
F0.5416666666666666
sg13
F7.708859601047175
sg14
F0.0
sg15
F3.871201010907891
sg16
F12.602675264204409
sg17
F0.024628450106157114
sg18
F0.0
sg19
F14.77102200299171
sg20
F14.324046562551628
sg21
F4.060443010546419
sg22
F0.9460721868365181
sg23
F3.258096538021482
sg24
F13.233548695912376
sg25
F12.82246836299098
sg26
F15.226441676456126
sg27
F13.914499417666452
ssS'HORTON STANLEY C'
p49
(dp50
g3
F7.762170607138205
sg4
F14.957137635221475
sg5
F0.0
sg6
I00
sg7
F0.0
sg8
S'stanley.horton@enron.com'
p51
sg10
F0.0
sg11
F0.0
sg12
F0.013979496738117428
sg13
F6.97914527506881
sg14
F0.0
sg15
F6.9782137426306985
sg16
F0.0
sg17
F0.01872340425531915
sg18
F0.0
sg19
F0.0
sg20
F15.797428572192045
sg21
F3.784189633918261
sg22
F0.4570212765957447
sg23
F2.70805020110221
sg24
F14.531435836673996
sg25
F0.0
sg26
F14.957137635221475
sg27
F15.466199620818061
ssS'PIPER GREGORY F'
p52
(dp53
g3
F7.121252453244542
sg4
F13.937760048588135
sg5
F10.670280098263682
sg6
I00
sg7
F10.414303176252119
sg8
S'greg.piper@enron.com'
p54
sg10
F0.0
sg11
F12.922824041713291
sg12
F0.21621621621621623
sg13
F6.60934924316738
sg14
F0.0
sg15
F5.402677381872279
sg16
F6.656726524178391
sg17
F0.049273021001615507
sg18
F0.0
sg19
F12.89921982609012
sg20
F13.688006677620757
sg21
F4.110873864173311
sg22
F0.5993537964458805
sg23
F3.871201010907891
sg24
F12.922824041713291
sg25
F12.19142082999781
sg26
F14.368032098269406
sg27
F13.688006677620757
ssS'HUMPHREY GENE E'
p55
(dp56
g3
F4.852030263919617
sg4
F14.902220966077588
sg5
F8.515992470839718
sg6
I00
sg7
F0.0
sg8
S'gene.humphrey@enron.com'
p57
sg10
F0.0
sg11
F0.0
sg12
F1.0
sg13
F4.77912349311153
sg14
F0.0
sg15
F2.833213344056216
sg16
F0.0
sg17
F0.078125
sg18
F0.0
sg19
F0.0
sg20
F14.64089929967365
sg21
F2.302585092994046
sg22
F0.9296875
sg23
F2.833213344056216
sg24
F0.0
sg25
F11.780843509380869
sg26
F14.946984924909403
sg27
F14.64089929967365
ssS'UMANOFF ADAM S'
p58
(dp59
g3
F4.709530201312334
sg4
F0.0
sg5
F10.88034643404396
sg6
I00
sg7
F0.0
sg8
S'adam.umanoff@enron.com'
p60
sg10
F0.0
sg11
F0.0
sg12
F0.0
sg13
F3.713572066704308
sg14
F0.0
sg15
F2.8903717578961645
sg16
F0.0
sg17
F0.10810810810810811
sg18
F0.0
sg19
F13.57820469283756
sg20
F0.0
sg21
F2.4849066497880004
sg22
F0.36936936936936937
sg23
F0.0
sg24
F0.0
sg25
F12.572758809557396
sg26
F13.93813607209536
sg27
F0.0
ssS'BLACHMAN JEREMY M'
p61
(dp62
g3
F7.813995675002791
sg4
F0.0
sg5
F11.34104520759356
sg6
I00
sg7
F0.0
sg8
S'jeremy.blachman@enron.com'
p63
sg10
F13.631358126141045
sg11
F0.0
sg12
F0.14285714285714285
sg13
F7.75190533307861
sg14
F0.0
sg15
F2.6390573296152584
sg16
F5.605802066295998
sg17
F0.010101010101010102
sg18
F0.0
sg19
F13.652991628466498
sg20
F13.76878995078367
sg21
F3.2188758248682006
sg22
F0.9397979797979797
sg23
F0.6931471805599453
sg24
F12.149719201732536
sg25
F12.423383218051939
sg26
F14.516047864154011
sg27
F13.548040179456299
ssS'SUNDE MARTIN'
p64
(dp65
g3
F7.881182202227102
sg4
F0.0
sg5
F0.0
sg6
I00
sg7
F0.0
sg8
S'marty.sunde@enron.com'
p66
sg10
F13.074120163630255
sg11
F0.0
sg12
F0.34210526315789475
sg13
F7.84971375760487
sg14
F0.0
sg15
F3.6375861597263857
sg16
F11.618383975826369
sg17
F0.013978088401964487
sg18
F0.0
sg19
F13.458835614025542
sg20
F13.457291565452975
sg21
F3.6109179126442243
sg22
F0.9690215338118625
sg23
F2.5649493574615367
sg24
F13.457291565452975
sg25
F12.458720628675845
sg26
F14.250572655287117
sg27
F0.0
ssS'GIBBS DANA R'
p67
(dp68
g3
F5.1298987149230735
sg4
F13.131541132670096
sg5
F0.0
sg6
I00
sg7
F0.0
sg8
S'dana.gibbs@enron.com'
p69
sg10
F13.043129675730507
sg11
F0.0
sg12
F0.0
sg13
F3.1354942159291497
sg14
F0.0
sg15
F2.4849066497880004
sg16
F0.0
sg17
F0.0
sg18
F0.0
sg19
F0.0
sg20
F14.612240424779461
sg21
F0.0
sg22
F0.13609467455621302
sg23
F0.0
sg24
F0.0
sg25
F0.0
sg26
F13.781459339916726
sg27
F14.612240424779461
ssS'LOWRY CHARLES P'
p70
(dp71
g3
Fnan
sg4
F0.0
sg5
F0.0
sg6
I00
sg7
F0.0
sg8
g30
sg10
F0.0
sg11
F11.942666838845852
sg12
Fnan
sg13
Fnan
sg14
F0.0
sg15
Fnan
sg16
F0.0
sg17
Fnan
sg18
F0.0
sg19
F0.0
sg20
F12.827200056737887
sg21
Fnan
sg22
Fnan
sg23
Fnan
sg24
F11.942666838845852
sg25
F0.0
sg26
F0.0
sg27
F12.827200056737887
ssS'COLWELL WESLEY'
p72
(dp73
g3
F7.471932078245122
sg4
F10.225933304924201
sg5
F9.711963784977375
sg6
I01
sg7
F11.877999041451247
sg8
S'wes.colwell@enron.com'
p74
sg10
F0.0
sg11
F0.0
sg12
F0.275
sg13
F7.0317412587631285
sg14
F0.0
sg15
F3.6888794541139363
sg16
F11.530175818376756
sg17
F0.13651877133105803
sg18
F0.0
sg19
F13.997832114758229
sg20
F13.456321026527323
sg21
F5.480638923341991
sg22
F0.6439135381114903
sg23
F2.3978952727983707
sg24
F13.456321026527323
sg25
F12.57259593492372
sg26
F14.214517523757912
sg27
F0.0
ssS'MULLER MARK S'
p75
(dp76
g3
F4.912654885736052
sg4
F13.644632078708707
sg5
F0.0
sg6
I00
sg7
F13.485616636703183
sg8
S's..muller@enron.com'
p77
sg10
F14.361053500577409
sg11
F0.0
sg12
F0.0
sg13
F4.736198448394496
sg14
F0.0
sg15
F2.772588722239781
sg16
F6.853299093186078
sg17
F0.08823529411764706
sg18
F0.0
sg19
F13.9108207377686
sg20
F14.163945244041189
sg21
F2.4849066497880004
sg22
F0.8382352941176471
sg23
F0.0
sg24
F12.795324902593903
sg25
F12.435810407170571
sg26
F14.979308033636507
sg27
F13.870301727646964
ssS'JACKSON CHARLENE R'
p78
(dp79
g3
F5.552959584921617
sg4
F0.0
sg5
F9.228278517107196
sg6
I00
sg7
F0.0
sg8
S'charlene.jackson@enron.com'
p80
sg10
F0.0
sg11
F0.0
sg12
F0.3392857142857143
sg13
F4.762173934797756
sg14
F0.0
sg15
F4.02535169073515
sg16
F7.79770203551669
sg17
F0.09689922480620156
sg18
F0.0
sg19
F12.429216196844383
sg20
F13.494940213399085
sg21
F3.2188758248682006
sg22
F0.45348837209302323
sg23
F2.9444389791664403
sg24
F13.200568089305715
sg25
F12.572651384585837
sg26
F13.219805827757735
sg27
F12.128451586630232
ssS'WESTFAHL RICHARD K'
p81
(dp82
g3
Fnan
sg4
F0.0
sg5
F10.856495867345446
sg6
I00
sg7
F9.287301413112312
sg8
S'dick.westfahl@enron.com'
p83
sg10
F12.45367853902212
sg11
F0.0
sg12
Fnan
sg13
Fnan
sg14
F0.0
sg15
Fnan
sg16
F12.90204084327682
sg17
Fnan
sg18
F0.0
sg19
F0.0
sg20
F12.860816778557174
sg21
Fnan
sg22
Fnan
sg23
Fnan
sg24
F12.860816778557174
sg25
F11.06263034094427
sg26
F13.543878984331187
sg27
F0.0
ssS'WALTERS GARETH W'
p84
(dp85
g3
Fnan
sg4
F10.889770656230318
sg5
F10.427772195986275
sg6
I00
sg7
F0.0
sg8
g30
sg10
F0.0
sg11
F0.0
sg12
Fnan
sg13
Fnan
sg14
F0.0
sg15
Fnan
sg16
F0.0
sg17
Fnan
sg18
F0.0
sg19
F0.0
sg20
F13.845388726678646
sg21
Fnan
sg22
Fnan
sg23
Fnan
sg24
F0.0
sg25
F0.0
sg26
F11.378364971574534
sg27
F13.845388726678646
ssS'WALLS JR ROBERT H'
p86
(dp87
g3
F6.508769136971682
sg4
F0.0
sg5
F10.838325221696861
sg6
I00
sg7
F0.0
sg8
S'rob.walls@enron.com'
p88
sg10
F13.200714193096998
sg11
F0.0
sg12
F0.0
sg13
F5.3706380281276624
sg14
F0.0
sg15
F4.983606621708336
sg16
F0.6931471805599453
sg17
F0.02533532041728763
sg18
F0.0
sg19
F13.652991628466498
sg20
F15.59029289442431
sg21
F2.833213344056216
sg22
F0.3204172876304024
sg23
F0.0
sg24
F14.255346818579499
sg25
F12.785745930240575
sg26
F14.402619215293418
sg27
F15.28489160453756
ssS'KITCHEN LOUISE'
p89
(dp90
g3
F9.024613022047395
sg4
F0.0
sg5
F8.661120360222881
sg6
I00
sg7
F0.0
sg8
S'louise.kitchen@enron.com'
p91
sg10
F0.0
sg11
F0.0
sg12
F0.11226851851851852
sg13
F8.207674424355282
sg14
F0.0
sg15
F7.454719949364001
sg16
F11.45025187044217
sg17
F0.030222757375075255
sg18
F0.0
sg19
F14.946912669455374
sg20
F13.212465473198087
sg21
F5.5254529391317835
sg22
F0.441782059000602
sg23
F5.267858159063328
sg24
F13.052157627820877
sg25
F12.511503767541784
sg26
F15.059993916317909
sg27
F11.302722817788819
ssS'CHAN RONNIE'
p92
(dp93
g3
Fnan
sg4
F0.0
sg5
F0.0
sg6
I00
sg7
F11.500690927301886
sg8
g30
sg10
F0.0
sg11
F10.387763841068582
sg12
Fnan
sg13
Fnan
sg14
F0.0
sg15
Fnan
sg16
F0.0
sg17
Fnan
sg18
F11.500690927301886
sg19
F0.0
sg20
F0.0
sg21
Fnan
sg22
Fnan
sg23
Fnan
sg24
F10.387763841068582
sg25
F0.0
sg26
F0.0
sg27
F0.0
ssS'BELFER ROBERT'
p94
(dp95
g3
Fnan
sg4
F0.0
sg5
F8.09712193091871
sg6
I00
sg7
F11.5376180775606
sg8
g30
sg10
F0.0
sg11
F10.694056318677243
sg12
Fnan
sg13
Fnan
sg14
F0.0
sg15
Fnan
sg16
F0.0
sg17
Fnan
sg18
F11.5376180775606
sg19
F0.0
sg20
F0.0
sg21
Fnan
sg22
Fnan
sg23
Fnan
sg24
F10.694056318677243
sg25
F0.0
sg26
F8.09712193091871
sg27
F0.0
ssS'SHANKMAN JEFFREY A'
p96
(dp97
g3
F8.0774471493312
sg4
F0.0
sg5
F12.095023759504793
sg6
I00
sg7
F0.0
sg8
S'jeffrey.shankman@enron.com'
p98
sg10
F13.225681408610182
sg11
F0.0
sg12
F0.030958597538232
sg13
F7.455876687491824
sg14
F0.0
sg15
F7.893945138235959
sg16
F7.0825485693553
sg17
F0.029183483390251473
sg18
F0.0
sg19
F14.508657738524219
sg20
F14.544041774110736
sg21
F4.543294782270004
sg22
F0.5371002794163303
sg23
F4.418840607796598
sg24
F13.353692535044107
sg25
F12.625144757044556
sg26
F14.926941008518975
sg27
F14.181470859235034
ssS'WODRASKA JOHN'
p99
(dp100
g3
Fnan
sg4
F0.0
sg5
F0.0
sg6
I00
sg7
F0.0
sg8
S'john.wodraska@enron.com'
p101
sg10
F0.0
sg11
F0.0
sg12
Fnan
sg13
Fnan
sg14
F0.0
sg15
Fnan
sg16
F12.152582202335884
sg17
Fnan
sg18
F0.0
sg19
F0.0
sg20
F0.0
sg21
Fnan
sg22
Fnan
sg23
Fnan
sg24
F0.0
sg25
F0.0
sg26
F12.152582202335884
sg27
F0.0
ssS'BERGSIEKER RICHARD P'
p102
(dp103
g3
F5.948034989180646
sg4
F0.0
sg5
F10.988254434382185
sg6
I00
sg7
F13.093579055175699
sg8
S'rick.bergsieker@enron.com'
p104
sg10
F12.102100055147195
sg11
F0.0
sg12
F0.0
sg13
F5.4510384535657
sg14
F0.0
sg15
F4.07753744390572
sg16
F12.965279065349533
sg17
F0.010443864229765013
sg18
F0.0
sg19
F12.429216196844383
sg20
F13.398856587339147
sg21
F1.3862943611198906
sg22
F0.608355091383812
sg23
F0.0
sg24
F13.398856587339147
sg25
F12.143782262102894
sg26
F13.335618195968168
sg27
F0.0
ssS'URQUHART JOHN A'
p105
(dp106
g3
Fnan
sg4
F0.0
sg5
F12.339973969721576
sg6
I00
sg7
F10.50960517412297
sg8
g30
sg10
F0.0
sg11
F0.0
sg12
Fnan
sg13
Fnan
sg14
F0.0
sg15
Fnan
sg16
F0.0
sg17
Fnan
sg18
F10.50960517412297
sg19
F0.0
sg20
F0.0
sg21
Fnan
sg22
Fnan
sg23
Fnan
sg24
F0.0
sg25
F0.0
sg26
F12.339973969721576
sg27
F0.0
ssS'BIBI PHILIPPE A'
p107
(dp108
g3
F7.382124365737512
sg4
F0.0
sg5
F10.559944814778241
sg6
I00
sg7
F0.0
sg8
S'philippe.bibi@enron.com'
p109
sg10
F12.820503946124596
sg11
F0.0
sg12
F0.2
sg13
F7.197435354096591
sg14
F0.0
sg15
F3.6888794541139363
sg16
F12.961461962553532
sg17
F0.01431238332296204
sg18
F0.0
sg19
F13.815510557964274
sg20
F14.427347895039754
sg21
F3.1354942159291497
sg22
F0.8313627878033603
sg23
F2.0794415416798357
sg24
F12.842866382292481
sg25
F12.271977420417892
sg26
F14.532175514923269
sg27
F14.197866698853527
ssS'PIRO JIM'
p110
(dp111
g3
F4.060443010546419
sg4
F0.0
sg5
F0.0
sg6
I00
sg7
F0.0
sg8
S'jim.piro@enron.com'
p112
sg10
F0.0
sg11
F0.0
sg12
F0.0625
sg13
F1.0986122886681098
sg14
F0.0
sg15
F2.772588722239781
sg16
F0.0
sg17
F0.0
sg18
F0.0
sg19
F0.0
sg20
F10.764350137500665
sg21
F0.0
sg22
F0.05172413793103448
sg23
F0.0
sg24
F10.764350137500665
sg25
F0.0
sg26
F0.0
sg27
F0.0
ssS'RIEKER PAULA H'
p113
(dp114
g3
F7.191429330036379
sg4
F12.276894510055829
sg5
F10.412441425669323
sg6
I01
sg7
F11.512925464970229
sg8
S'paula.rieker@enron.com'
p115
sg10
F0.0
sg11
F0.0
sg12
F0.5853658536585366
sg13
F7.1372784372603855
sg14
F0.0
sg15
F4.406719247264253
sg16
F7.575584651557793
sg17
F0.02635542168674699
sg18
F0.0
sg19
F13.458835614025542
sg20
F14.467255888420205
sg21
F3.5553480614894135
sg22
F0.947289156626506
sg23
F3.871201010907891
sg24
F12.555492837276967
sg25
F12.426015078728476
sg26
F13.910002221056992
sg27
F14.30729891746906
ssS'WHALEY DAVID A'
p116
(dp117
g3
Fnan
sg4
F0.0
sg5
F0.0
sg6
I00
sg7
F0.0
sg8
g30
sg10
F0.0
sg11
F0.0
sg12
Fnan
sg13
Fnan
sg14
F0.0
sg15
Fnan
sg16
F0.0
sg17
Fnan
sg18
F0.0
sg19
F0.0
sg20
F11.500022579614704
sg21
Fnan
sg22
Fnan
sg23
Fnan
sg24
F0.0
sg25
F0.0
sg26
F0.0
sg27
F11.500022579614704
ssS'BECK SALLY W'
p118
(dp119
g3
F8.897682313454224
sg4
F0.0
sg5
F10.52331106867723
sg6
I00
sg7
F0.0
sg8
S'sally.beck@enron.com'
p120
sg10
F0.0
sg11
F0.0
sg12
F0.08887865530739121
sg13
F7.878155336503324
sg14
F0.0
sg15
F8.376320632534823
sg16
F6.338594078203183
sg17
F0.01968557758031442
sg18
F0.0
sg19
F13.458835614025542
sg20
F11.744251448691996
sg21
F4.969813299576001
sg22
F0.36076555023923446
sg23
F5.955837369464831
sg24
F11.744251448691996
sg25
F12.351600541495117
sg26
F13.78409006384932
sg27
F0.0
ssS'HAUG DAVID L'
p121
(dp122
g3
F6.35088571671474
sg4
F0.0
sg5
F6.163314804034641
sg6
I00
sg7
F0.0
sg8
S'david.haug@enron.com'
p123
sg10
F0.0
sg11
F0.0
sg12
F0.3684210526315789
sg13
F6.154858094016418
sg14
F0.0
sg15
F2.9444389791664403
sg16
F0.0
sg17
F0.006980802792321117
sg18
F0.0
sg19
F0.0
sg20
F14.611800346442024
sg21
F1.3862943611198906
sg22
F0.8219895287958116
sg23
F1.9459101490553132
sg24
F14.611800346442024
sg25
F0.0
sg26
F6.163314804034641
sg27
F0.0
ssS'ECHOLS JOHN B'
p124
(dp125
g3
Fnan
sg4
F0.0
sg5
F9.97720259035841
sg6
I00
sg7
F0.0
sg8
S'john.echols@enron.com'
p126
sg10
F14.619650662348747
sg11
F0.0
sg12
Fnan
sg13
Fnan
sg14
F0.0
sg15
Fnan
sg16
F10.89256395413593
sg17
Fnan
sg18
F0.0
sg19
F12.206072645530174
sg20
F13.824411823889719
sg21
Fnan
sg22
Fnan
sg23
Fnan
sg24
F12.917803573599146
sg25
F12.113107214652313
sg26
F14.805915319116664
sg27
F13.307078733439988
ssS'MENDELSOHN JOHN'
p127
(dp128
g3
Fnan
sg4
F0.0
sg5
F4.997212273764115
sg6
I00
sg7
F11.549739438092944
sg8
g30
sg10
F0.0
sg11
F0.0
sg12
Fnan
sg13
Fnan
sg14
F0.0
sg15
Fnan
sg16
F0.0
sg17
Fnan
sg18
F11.549739438092944
sg19
F0.0
sg20
F0.0
sg21
Fnan
sg22
Fnan
sg23
Fnan
sg24
F0.0
sg25
F0.0
sg26
F4.997212273764115
sg27
F0.0
ssS'HICKERSON GARY J'
p129
(dp130
g3
F7.1853870155804165
sg4
F0.0
sg5
F11.501348712209706
sg6
I00
sg7
F0.0
sg8
S'gary.hickerson@enron.com'
p131
sg10
F11.145088456325304
sg11
F0.0
sg12
F0.037037037037037035
sg13
F6.802394763324311
sg14
F0.0
sg15
F3.295836866004329
sg16
F7.568379267836522
sg17
F0.030303030303030304
sg18
F0.0
sg19
F14.346138809026444
sg20
F12.99701781781342
sg21
F3.6888794541139363
sg22
F0.6818181818181818
sg23
F0.0
sg24
F12.99701781781342
sg25
F12.263341053320566
sg26
F14.548741540647498
sg27
F0.0
ssS'CLINE KENNETH W'
p132
(dp133
g3
Fnan
sg4
F0.0
sg5
F0.0
sg6
I00
sg7
F0.0
sg8
g30
sg10
F0.0
sg11
F13.06593693090503
sg12
Fnan
sg13
Fnan
sg14
F0.0
sg15
Fnan
sg16
F0.0
sg17
Fnan
sg18
F0.0
sg19
F0.0
sg20
F12.152239285801045
sg21
Fnan
sg22
Fnan
sg23
Fnan
sg24
F13.403150735847213
sg25
F0.0
sg26
F0.0
sg27
F0.0
ssS'LEWIS RICHARD'
p134
(dp135
g3
F6.858565034791365
sg4
F0.0
sg5
F0.0
sg6
I00
sg7
F0.0
sg8
S'richard.lewis@enron.com'
p136
sg10
F0.0
sg11
F0.0
sg12
F0.0
sg13
F6.6052979209482015
sg14
F0.0
sg15
F3.258096538021482
sg16
F0.0
sg17
F0.01050420168067227
sg18
F0.0
sg19
F0.0
sg20
F13.653552647536456
sg21
F2.302585092994046
sg22
F0.7762605042016807
sg23
F0.0
sg24
F0.0
sg25
F0.0
sg26
F0.0
sg27
F13.653552647536456
ssS'HAYES ROBERT E'
p137
(dp138
g3
F6.222576268071369
sg4
F8.982309899088579
sg5
F0.0
sg6
I00
sg7
F0.0
sg8
S'robert.hayes@enron.com'
p139
sg10
F0.0
sg11
F0.0
sg12
F0.0
sg13
F3.912023005428146
sg14
F0.0
sg15
F2.4849066497880004
sg16
F0.0
sg17
F0.031746031746031744
sg18
F0.0
sg19
F0.0
sg20
F11.927799503275258
sg21
F2.772588722239781
sg22
F0.0992063492063492
sg23
F0.0
sg24
F11.927799503275258
sg25
F0.0
sg26
F8.982309899088579
sg27
F0.0
ssS'KOPPER MICHAEL J'
p140
(dp141
g3
Fnan
sg4
F0.0
sg5
F11.679574852369887
sg6
I01
sg7
F0.0
sg8
S'michael.kopper@enron.com'
p142
sg10
F13.309126721505786
sg11
F0.0
sg12
Fnan
sg13
Fnan
sg14
F0.0
sg15
Fnan
sg16
F13.718451048975464
sg17
Fnan
sg18
F0.0
sg19
F13.592367006650065
sg20
F13.80042940693617
sg21
Fnan
sg22
Fnan
sg23
Fnan
sg24
F13.80042940693617
sg25
F12.320762011833631
sg26
F14.791055372895537
sg27
F0.0
ssS'LEFF DANIEL P'
p143
(dp144
g3
F7.945201132412759
sg4
F0.0
sg5
F0.0
sg6
I00
sg7
F0.0
sg8
S'dan.leff@enron.com'
p145
sg10
F14.14294132916041
sg11
F0.0
sg12
F0.2222222222222222
sg13
F7.890582534656536
sg14
F0.0
sg15
F4.143134726391533
sg16
F8.03365842788615
sg17
F0.02374202693125443
sg18
F0.0
sg19
F13.815510557964274
sg20
F12.795324902593903
sg21
F4.204692619390966
sg22
F0.9468462083628633
sg23
F2.6390573296152584
sg24
F12.795324902593903
sg25
F12.519955948133948
sg26
F14.795424892565766
sg27
F0.0
ssS'LAVORATO JOHN J'
p146
(dp147
g3
F8.889997357284841
sg4
F0.0
sg5
F10.810475144084139
sg6
I00
sg7
F0.0
sg8
S'john.lavorato@enron.com'
p148
sg10
F14.52619309161328
sg11
F0.0
sg12
F0.15899419729206962
sg13
F8.284504227258497
sg14
F0.0
sg15
F7.85748078694253
sg16
F7.347299700743164
sg17
F0.07273729163796666
sg18
F0.0
sg19
F15.89495209964411
sg20
F15.457830676050715
sg21
F6.269096283706261
sg22
F0.5458052073288332
sg23
F6.018593214496234
sg24
F13.823626534149843
sg25
F12.734604583214978
sg26
F16.15978993692175
sg27
F15.240784016512256
ssS'BERBERIAN DAVID'
p149
(dp150
g3
Fnan
sg4
F0.0
sg5
F9.383621184117988
sg6
I00
sg7
F0.0
sg8
S'david.berberian@enron.com'
p151
sg10
F0.0
sg11
F0.0
sg12
Fnan
sg13
Fnan
sg14
F0.0
sg15
Fnan
sg16
F0.0
sg17
Fnan
sg18
F0.0
sg19
F0.0
sg20
F14.72924442384073
sg21
Fnan
sg22
Fnan
sg23
Fnan
sg24
F13.675351536763753
sg25
F12.28572450760275
sg26
F12.339177697284342
sg27
F14.300646612343575
ssS'DETMERING TIMOTHY J'
p152
(dp153
g3
Fnan
sg4
F13.682329960946634
sg5
F10.863890859028604
sg6
I00
sg7
F13.560929227736972
sg8
S'timothy.detmering@enron.com'
p154
sg10
F12.93761567990969
sg11
F12.660543767526416
sg12
Fnan
sg13
Fnan
sg14
F0.0
sg15
Fnan
sg16
F7.007600613951853
sg17
Fnan
sg18
F0.0
sg19
F12.959844447906553
sg20
F14.522494073430122
sg21
Fnan
sg22
Fnan
sg23
Fnan
sg24
F12.660543767526416
sg25
F12.257240932104573
sg26
F14.001644006923687
sg27
F14.522494073430122
ssS'WAKEHAM JOHN'
p155
(dp156
g3
Fnan
sg4
F0.0
sg5
F11.549961100271057
sg6
I00
sg7
F0.0
sg8
g30
sg10
F0.0
sg11
F0.0
sg12
Fnan
sg13
Fnan
sg14
F0.0
sg15
Fnan
sg16
F0.0
sg17
Fnan
sg18
F11.60183337573555
sg19
F0.0
sg20
F0.0
sg21
Fnan
sg22
Fnan
sg23
Fnan
sg24
F0.0
sg25
F0.0
sg26
F12.269380722481683
sg27
F0.0
ssS'POWERS WILLIAM'
p157
(dp158
g3
F6.481577129276431
sg4
F0.0
sg5
F0.0
sg6
I00
sg7
F9.769956159911606
sg8
S'ken.powers@enron.com'
p159
sg10
F0.0
sg11
F0.0
sg12
F0.0
sg13
F2.4849066497880004
sg14
F0.0
sg15
F3.258096538021482
sg16
F0.0
sg17
F0.0
sg18
F9.769956159911606
sg19
F0.0
sg20
F0.0
sg21
F0.0
sg22
F0.018376722817764167
sg23
F0.0
sg24
F0.0
sg25
F0.0
sg26
F0.0
sg27
F0.0
ssS'GOLD JOSEPH'
p160
(dp161
g3
Fnan
sg4
F0.0
sg5
F0.0
sg6
I00
sg7
F0.0
sg8
S'joe.gold@enron.com'
p162
sg10
F12.627427506859556
sg11
F0.0
sg12
Fnan
sg13
Fnan
sg14
F0.0
sg15
Fnan
sg16
F13.616190949373063
sg17
Fnan
sg18
F0.0
sg19
F13.527828485512494
sg20
F13.684958722048744
sg21
Fnan
sg22
Fnan
sg23
Fnan
sg24
F12.99701781781342
sg25
F12.516787417092527
sg26
F14.579569501094838
sg27
F12.986578017932525
ssS'BANNANTINE JAMES M'
p163
(dp164
g3
F6.338594078203183
sg4
F0.0
sg5
F10.938467575959383
sg6
I00
sg7
F8.537779825024625
sg8
S'james.bannantine@enron.com'
p165
sg10
F0.0
sg11
F13.236088412725715
sg12
F0.0
sg13
F6.142037405587356
sg14
F0.0
sg15
F3.367295829986474
sg16
F13.66993318872555
sg17
F0.06890459363957598
sg18
F0.0
sg19
F0.0
sg20
F15.472497292993488
sg21
F3.6635616461296463
sg22
F0.8215547703180212
sg23
F0.0
sg24
F14.379432489711474
sg25
F6.1675164908883415
sg26
F13.72798668603518
sg27
F15.213278099713778
ssS'DUNCAN JOHN H'
p166
(dp167
g3
Fnan
sg4
F0.0
sg5
F0.0
sg6
I00
sg7
F10.126631103850338
sg8
g30
sg10
F0.0
sg11
F0.0
sg12
Fnan
sg13
Fnan
sg14
F0.0
sg15
Fnan
sg16
F0.0
sg17
Fnan
sg18
F11.537540025734147
sg19
F0.0
sg20
F12.825976864322401
sg21
Fnan
sg22
Fnan
sg23
Fnan
sg24
F0.0
sg25
F0.0
sg26
F11.257929984206836
sg27
F12.825976864322401
ssS'SHAPIRO RICHARD S'
p168
(dp169
g3
F9.625689802158323
sg4
F0.0
sg5
F11.833319131378751
sg6
I00
sg7
F0.0
sg8
S'richard.shapiro@enron.com'
p170
sg10
F0.0
sg11
F0.0
sg12
F0.053497942386831275
sg13
F8.417814747435958
sg14
F0.0
sg15
F7.102499355774649
sg16
F6.558197802812269
sg17
F0.0048848108786058485
sg18
F0.0
sg19
F13.38472764187182
sg20
F13.80242633158633
sg21
F4.30406509320417
sg22
F0.29883160604660375
sg23
F4.174387269895637
sg24
F12.845724108147369
sg25
F12.50274914656153
sg26
F13.871463578943393
sg27
F13.317662032899928
ssS'SHERRIFF JOHN R'
p171
(dp172
g3
F8.066835314417336
sg4
F0.0
sg5
F0.0
sg6
I00
sg7
F0.0
sg8
S'john.sherriff@enron.com'
p173
sg10
F13.225681408610182
sg11
F0.0
sg12
F0.25
sg13
F7.6511201757027
sg14
F0.0
sg15
F4.5217885770490405
sg16
F14.431877121110752
sg17
F0.008785691873235017
sg18
F0.0
sg19
F14.22097566607244
sg20
F14.956218269997848
sg21
F3.332204510175204
sg22
F0.6598682146219015
sg23
F3.1354942159291497
sg24
F14.072803523567023
sg25
F12.968699245859922
sg26
F15.282321668228441
sg27
F14.422859080439128
ssS'SHELBY REX'
p174
(dp175
g3
F5.41610040220442
sg4
F0.0
sg5
F10.03819325538842
sg6
I01
sg7
F8.334951631422454
sg8
S'rex.shelby@enron.com'
p176
sg10
F0.0
sg11
F0.0
sg12
F0.358974358974359
sg13
F4.51085950651685
sg14
F0.0
sg15
F3.6635616461296463
sg16
F14.268701136672643
sg17
F0.057777777777777775
sg18
F0.0
sg19
F12.206072645530174
sg20
F14.72924442384073
sg21
F2.5649493574615367
sg22
F0.40444444444444444
sg23
F2.6390573296152584
sg24
F13.675351536763753
sg25
F12.263605433727742
sg26
F14.510598354310757
sg27
F14.300646612343575
ssS'LEMAISTRE CHARLES'
p177
(dp178
g3
Fnan
sg4
F0.0
sg5
F0.0
sg6
I00
sg7
F10.126631103850338
sg8
g30
sg10
F0.0
sg11
F0.0
sg12
Fnan
sg13
Fnan
sg14
F0.0
sg15
Fnan
sg16
F0.0
sg17
Fnan
sg18
F11.630637386986987
sg19
F0.0
sg20
F12.9309074287884
sg21
Fnan
sg22
Fnan
sg23
Fnan
sg24
F0.0
sg25
F0.0
sg26
F11.37930263959443
sg27
F12.9309074287884
ssS'DEFFNER JOSEPH M'
p179
(dp180
g3
F6.570882962339584
sg4
F0.0
sg5
F10.636480251018197
sg6
I00
sg7
F0.0
sg8
S'joseph.deffner@enron.com'
p181
sg10
F12.72292705956429
sg11
F0.0
sg12
F0.05405405405405406
sg13
F6.313548046277095
sg14
F0.0
sg15
F4.30406509320417
sg16
F10.14851000556878
sg17
F0.16106442577030813
sg18
F0.0
sg19
F13.304684934198283
sg20
F11.977985645482825
sg21
F4.74493212836325
sg22
F0.773109243697479
sg23
F1.3862943611198906
sg24
F11.862405588148432
sg25
F12.236218653973182
sg26
F14.005013764864525
sg27
F9.762960317399152
ssS'KISHKILL JOSEPH G'
p182
(dp183
g3
Fnan
sg4
F0.0
sg5
F11.664229239061394
sg6
I00
sg7
F10.840404102203939
sg8
S'joe.kishkill@enron.com'
p184
sg10
F0.0
sg11
F0.0
sg12
Fnan
sg13
Fnan
sg14
F0.0
sg15
Fnan
sg16
F13.050560131941893
sg17
Fnan
sg18
F0.0
sg19
F0.0
sg20
F13.849279900900765
sg21
Fnan
sg22
Fnan
sg23
Fnan
sg24
F13.849279900900765
sg25
F12.068223372835615
sg26
F13.465805553182099
sg27
F0.0
ssS'WHALLEY LAWRENCE G'
p185
(dp186
g3
F8.70267641154777
sg4
F0.0
sg5
F10.965401278088198
sg6
I00
sg7
F0.0
sg8
S'greg.whalley@enron.com'
p187
sg10
F13.60274546366593
sg11
F0.0
sg12
F0.04316546762589928
sg13
F8.273846932784508
sg14
F0.0
sg15
F6.320768294250582
sg16
F12.614951918738125
sg17
F0.03090214321315833
sg18
F0.0
sg19
F14.914122846632385
sg20
F15.62037330307833
sg21
F5.225746673713202
sg22
F0.6512709752450573
sg23
F3.1780538303479458
sg24
F14.843763685053208
sg25
F13.142879475609794
sg26
F15.358290157422129
sg27
F15.004256012431435
ssS'MCCARTY DANNY J'
p188
(dp189
g3
F7.267525427828172
sg4
F0.0
sg5
F0.0
sg6
I00
sg7
F0.0
sg8
S'danny.mccarty@enron.com'
p190
sg10
F0.0
sg11
F0.0
sg12
F0.009302325581395349
sg13
F6.230481447578482
sg14
F0.0
sg15
F5.3706380281276624
sg16
F0.0
sg17
F0.017445917655268667
sg18
F0.0
sg19
F0.0
sg20
F13.539666143154376
sg21
F3.2188758248682006
sg22
F0.35450104675505933
sg23
F0.6931471805599453
sg24
F11.456947530560772
sg25
F0.0
sg26
F0.0
sg27
F13.40660202807835
ssS'MCCONNELL MICHAEL S'
p191
(dp192
g3
F8.110427237575024
sg4
F0.0
sg5
F11.306688193722378
sg6
I00
sg7
F0.0
sg8
S'mike.mcconnell@enron.com'
p193
sg10
F13.225681408610182
sg11
F0.0
sg12
F0.07075127644055434
sg13
F7.691200097522863
sg14
F0.0
sg15
F7.91644286012226
sg16
F6.29156913955832
sg17
F0.02763592670471613
sg18
F0.0
sg19
F13.9108207377686
sg20
F14.947325165012545
sg21
F4.5217885770490405
sg22
F0.657554821267648
sg23
F5.267858159063328
sg24
F14.206382366636161
sg25
F12.807756736734643
sg26
F14.558097215653882
sg27
F14.299793007907198
ssS'DELAINEY DAVID W'
p194
(dp195
g3
F8.03689677268507
sg4
F0.0
sg5
F11.364123787024146
sg6
I01
sg7
F0.0
sg8
S'david.delainey@enron.com'
p196
sg10
F14.074006581193471
sg11
F0.0
sg12
F0.198435972629521
sg13
F7.64826303090192
sg14
F0.0
sg15
F8.029107054619736
sg16
F7.415175109613295
sg17
F0.02133850630455868
sg18
F0.0
sg19
F14.914122846632385
sg20
F15.100397966674393
sg21
F4.189654742026425
sg22
F0.6779825412221144
sg23
F6.411818267709897
sg24
F14.09552430380946
sg25
F12.808099108222002
sg26
F15.373229611787004
sg27
F14.644548283658818
ssS'SULLIVAN-SHAKLOVITZ COLLEEN'
p197
(dp198
g3
Fnan
sg4
F12.111723503780807
sg5
F0.0
sg6
I00
sg7
F0.0
sg8
g30
sg10
F13.225681408610182
sg11
F0.0
sg12
Fnan
sg13
Fnan
sg14
F0.0
sg15
Fnan
sg16
F5.087596335232384
sg17
Fnan
sg18
F0.0
sg19
F11.512925464970229
sg20
F14.124740058191612
sg21
Fnan
sg22
Fnan
sg23
Fnan
sg24
F0.0
sg25
F12.00014873160132
sg26
F13.8148663505072
sg27
F14.124740058191612
ssS'WROBEL BRUCE'
p199
(dp200
g3
Fnan
sg4
F0.0
sg5
F0.0
sg6
I00
sg7
F0.0
sg8
g30
sg10
F0.0
sg11
F0.0
sg12
Fnan
sg13
Fnan
sg14
F0.0
sg15
Fnan
sg16
F0.0
sg17
Fnan
sg18
F0.0
sg19
F0.0
sg20
F11.843164026835922
sg21
Fnan
sg22
Fnan
sg23
Fnan
sg24
F0.0
sg25
F0.0
sg26
F0.0
sg27
F11.843164026835922
ssS'LINDHOLM TOD A'
p201
(dp202
g3
Fnan
sg4
F12.226242852319556
sg5
F10.96348028065585
sg6
I00
sg7
F0.0
sg8
S'tod.lindholm@enron.com'
p203
sg10
F12.072541252905651
sg11
F0.0
sg12
Fnan
sg13
Fnan
sg14
F0.0
sg15
Fnan
sg16
F7.874739125171811
sg17
Fnan
sg18
F0.0
sg19
F12.206072645530174
sg20
F14.935299692656022
sg21
Fnan
sg22
Fnan
sg23
Fnan
sg24
F13.151625048128034
sg25
F12.373521652201378
sg26
F13.682994649561076
sg27
F14.751353297496836
ssS'MEYER JEROME J'
p204
(dp205
g3
Fnan
sg4
F0.0
sg5
F7.67368812926773
sg6
I00
sg7
F10.554405498878337
sg8
g30
sg10
F0.0
sg11
F0.0
sg12
Fnan
sg13
Fnan
sg14
F0.0
sg15
Fnan
sg16
F0.0
sg17
Fnan
sg18
F10.554405498878337
sg19
F0.0
sg20
F0.0
sg21
Fnan
sg22
Fnan
sg23
Fnan
sg24
F0.0
sg25
F0.0
sg26
F7.67368812926773
sg27
F0.0
ssS'LAY KENNETH L'
p206
(dp207
g3
F8.360071435644025
sg4
F12.220522738242858
sg5
F11.51124405218769
sg6
I01
sg7
F12.611537753638338
sg8
S'kenneth.lay@enron.com'
p208
sg10
F15.096444403426338
sg11
F0.0
sg12
F0.4444444444444444
sg13
F7.787796878181171
sg14
F18.216420279639657
sg15
F3.58351893845611
sg16
F16.153436636152318
sg17
F0.028785396676807865
sg18
F0.0
sg19
F15.761420707019587
sg20
F17.709574826285394
sg21
F4.812184355372417
sg22
F0.5642405803884858
sg23
F2.772588722239781
sg24
F16.507546140198766
sg25
F13.885336016088093
sg26
F18.455659714004362
sg27
F17.35206553040225
ssS'BUTTS ROBERT H'
p209
(dp210
g3
Fnan
sg4
F0.0
sg5
F9.149528232579426
sg6
I00
sg7
F11.225243392518447
sg8
S'bob.butts@enron.com'
p211
sg10
F12.072541252905651
sg11
F0.0
sg12
Fnan
sg13
Fnan
sg14
F0.0
sg15
Fnan
sg16
F11.922754371179893
sg17
Fnan
sg18
F0.0
sg19
F13.527828485512494
sg20
F12.942324812599852
sg21
Fnan
sg22
Fnan
sg23
Fnan
sg24
F12.942324812599852
sg25
F12.474250746083811
sg26
F14.055772352523817
sg27
F0.0
ssS'OLSON CINDY K'
p212
(dp213
g3
F7.076653815443951
sg4
F11.260816435363003
sg5
F11.06336739355144
sg6
I00
sg7
F0.0
sg8
S'cindy.olson@enron.com'
p214
sg10
F11.512925464970229
sg11
F0.0
sg12
F0.28846153846153844
sg13
F6.752270376141742
sg14
F0.0
sg15
F3.9512437185814275
sg16
F6.879355804460439
sg17
F0.016891891891891893
sg18
F0.0
sg19
F13.527828485512494
sg20
F14.773619779692249
sg21
F2.995732273553991
sg22
F0.722972972972973
sg23
F2.70805020110221
sg24
F13.784771930002
sg25
F12.704050083714867
sg26
F14.09432114489992
sg27
F14.308396625838256
ssS'MCDONALD REBECCA'
p215
(dp216
g3
F6.795705775173514
sg4
F0.0
sg5
F0.0
sg6
I00
sg7
F0.0
sg8
S'rebecca.mcdonald@enron.com'
p217
sg10
F0.0
sg11
F0.0
sg12
F0.07692307692307693
sg13
F6.579251212010101
sg14
F0.0
sg15
F2.5649493574615367
sg16
F0.0
sg17
F0.06040268456375839
sg18
F0.0
sg19
F0.0
sg20
F14.34104704443731
sg21
F3.9889840465642745
sg22
F0.8053691275167785
sg23
F0.0
sg24
F13.74730130793724
sg25
F0.0
sg26
F0.0
sg27
F13.537516075581697
ssS'CUMBERLAND MICHAEL S'
p218
(dp219
g3
Fnan
sg4
F0.0
sg5
F10.014313107625012
sg6
I00
sg7
F0.0
sg8
g30
sg10
F12.524526376648708
sg11
F0.0
sg12
Fnan
sg13
Fnan
sg14
F0.0
sg15
Fnan
sg16
F6.569481420414296
sg17
Fnan
sg18
F0.0
sg19
F12.691580461311874
sg20
F12.245004855531961
sg21
Fnan
sg22
Fnan
sg23
Fnan
sg24
F12.245004855531961
sg25
F12.127565009031764
sg26
F13.602262880574937
sg27
F0.0
ssS'GAHN ROBERT S'
p220
(dp221
g3
Fnan
sg4
F11.199884558051558
sg5
F10.82137700577398
sg6
I00
sg7
F6.948897222313312
sg8
g30
sg10
F0.0
sg11
F0.0
sg12
Fnan
sg13
Fnan
sg14
F0.0
sg15
Fnan
sg16
F11.245660210246031
sg17
Fnan
sg18
F0.0
sg19
F13.141911070246698
sg20
F12.67171364734039
sg21
Fnan
sg22
Fnan
sg23
Fnan
sg24
F12.368914023036002
sg25
F12.165292316808554
sg26
F13.710799831147945
sg27
F11.329447239492891
ssS'MCCLELLAN GEORGE'
p222
(dp223
g3
F7.463936604468925
sg4
F0.0
sg5
F12.340441812124062
sg6
I00
sg7
F11.736069016284437
sg8
S'george.mcclellan@enron.com'
p224
sg10
F0.0
sg11
F0.0
sg12
F0.0
sg13
F7.292337176173877
sg14
F0.0
sg15
F3.8918202981106265
sg16
F10.851024981743453
sg17
F0.02981651376146789
sg18
F0.0
sg19
F13.710150042306449
sg20
F13.761963146014166
sg21
F3.9512437185814275
sg22
F0.8423165137614679
sg23
F0.0
sg24
F12.99701781781342
sg25
F12.481478421667193
sg26
F14.09220473397783
sg27
F13.135802664270836
ssS'HERMANN ROBERT J'
p225
(dp226
g3
Fnan
sg4
F0.0
sg5
F10.786366268065041
sg6
I00
sg7
F12.542544882151386
sg8
S'robert.hermann@enron.com'
p227
sg10
F11.918390573078392
sg11
F0.0
sg12
Fnan
sg13
Fnan
sg14
F0.0
sg15
Fnan
sg16
F12.939500073892116
sg17
Fnan
sg18
F0.0
sg19
F13.458835614025542
sg20
F13.412241037787947
sg21
Fnan
sg22
Fnan
sg23
Fnan
sg24
F13.082857183505297
sg25
F12.47862712068361
sg26
F14.075919835766967
sg27
F12.141534124392603
ssS'SCRIMSHAW MATTHEW'
p228
(dp229
g3
Fnan
sg4
F0.0
sg5
F0.0
sg6
I00
sg7
F0.0
sg8
S'matthew.scrimshaw@enron.com'
p230
sg10
F0.0
sg11
F0.0
sg12
Fnan
sg13
Fnan
sg14
F0.0
sg15
Fnan
sg16
F0.0
sg17
Fnan
sg18
F0.0
sg19
F0.0
sg20
F13.54049064757649
sg21
Fnan
sg22
Fnan
sg23
Fnan
sg24
F0.0
sg25
F0.0
sg26
F0.0
sg27
F13.54049064757649
ssS'GATHMANN WILLIAM D'
p231
(dp232
g3
Fnan
sg4
F0.0
sg5
F0.0
sg6
I00
sg7
F0.0
sg8
g30
sg10
F0.0
sg11
F11.19022397488406
sg12
Fnan
sg13
Fnan
sg14
F0.0
sg15
Fnan
sg16
F0.0
sg17
Fnan
sg18
F0.0
sg19
F0.0
sg20
F14.48095760788194
sg21
Fnan
sg22
Fnan
sg23
Fnan
sg24
F12.483753623340327
sg25
F0.0
sg26
F0.0
sg27
F14.377276033664389
ssS'HAEDICKE MARK E'
p233
(dp234
g3
F8.296297112642508
sg4
F14.58447321634577
sg5
F11.240709834752362
sg6
I00
sg7
F13.747749784275857
sg8
S'mark.haedicke@enron.com'
p235
sg10
F13.79871632092086
sg11
F12.706317489751978
sg12
F0.03142709943328181
sg13
F7.52131798019924
sg14
F0.0
sg15
F7.57095858316901
sg16
F10.86631829984518
sg17
F0.04489897730107259
sg18
F0.0
sg19
F13.955272500339433
sg20
F13.596227047098962
sg21
F5.19295685089021
sg22
F0.4607133948615615
sg23
F4.110873864173311
sg24
F13.169569430389048
sg25
F12.832345245155
sg26
F15.165935484119803
sg27
F13.319162953378937
ssS'BOWEN JR RAYMOND M'
p236
(dp237
g3
F7.527255919373784
sg4
F0.0
sg5
F11.09599993639729
sg6
I01
sg7
F6.725033642166843
sg8
S'raymond.bowen@enron.com'
p238
sg10
F13.789467358742236
sg11
F0.0
sg12
F0.5555555555555556
sg13
F7.373374309910049
sg14
F0.0
sg15
F3.295836866004329
sg16
F7.390798521735676
sg17
F0.07534983853606028
sg18
F0.0
sg19
F14.115615150414612
sg20
F12.437402596647882
sg21
F4.941642422609304
sg22
F0.8573735199138859
sg23
F2.70805020110221
sg24
F12.437402596647882
sg25
F12.53753592969685
sg26
F14.797435085943327
sg27
F0.0
ssS'GILLIS JOHN'
p239
(dp240
g3
Fnan
sg4
F0.0
sg5
F0.0
sg6
I00
sg7
F0.0
sg8
g30
sg10
F0.0
sg11
F0.0
sg12
Fnan
sg13
Fnan
sg14
F0.0
sg15
Fnan
sg16
F0.0
sg17
Fnan
sg18
F0.0
sg19
F0.0
sg20
F11.357919419421995
sg21
Fnan
sg22
Fnan
sg23
Fnan
sg24
F11.236354765273157
sg25
F0.0
sg26
F0.0
sg27
F9.190443740261726
ssS'FITZGERALD JAY L'
p241
(dp242
g3
F6.841615476477592
sg4
F0.0
sg5
F10.080377719332876
sg6
I00
sg7
F0.0
sg8
S'jay.fitzgerald@enron.com'
p243
sg10
F13.22927149490841
sg11
F0.0
sg12
F0.5
sg13
F6.583409222158765
sg14
F0.0
sg15
F2.772588722239781
sg16
F12.561696036781122
sg17
F0.0010683760683760685
sg18
F0.0
sg19
F12.765688433465597
sg20
F14.298699379263248
sg21
F0.0
sg22
F0.7724358974358975
sg23
F2.0794415416798357
sg24
F13.7713235330746
sg25
F12.20184873737695
sg26
F14.162539023881891
sg27
F13.406731464668146
ssS'MORAN MICHAEL P'
p244
(dp245
g3
F6.51025834052315
sg4
F0.0
sg5
F0.0
sg6
I00
sg7
F0.0
sg8
S'michael.moran@enron.com'
p246
sg10
F0.0
sg11
F0.0
sg12
F0.0
sg13
F4.844187086458591
sg14
F0.0
sg15
F2.9444389791664403
sg16
F0.0
sg17
F0.0
sg18
F0.0
sg19
F0.0
sg20
F12.306555786108417
sg21
F0.0
sg22
F0.18898809523809523
sg23
F0.0
sg24
F11.99289180123017
sg25
F0.0
sg26
F0.0
sg27
F10.99438683899708
ssS'REDMOND BRIAN L'
p247
(dp248
g3
F7.421177528595393
sg4
F0.0
sg5
F9.594854193331415
sg6
I00
sg7
F0.0
sg8
S'brian.redmond@enron.com'
p249
sg10
F0.0
sg11
F0.0
sg12
F0.22171945701357465
sg13
F6.968850378341948
sg14
F0.0
sg15
F5.3981627015177525
sg16
F0.0
sg17
F0.12208258527827648
sg18
F0.0
sg19
F0.0
sg20
F15.881147756617711
sg21
F5.318119993844216
sg22
F0.6361460203470976
sg23
F3.8918202981106265
sg24
F12.851302405968784
sg25
F11.480815411051994
sg26
F11.62203992575095
sg27
F15.831618052836012
ssS'BAZELIDES PHILIP J'
p250
(dp251
g3
Fnan
sg4
F13.436727302108878
sg5
F0.0
sg6
I00
sg7
F0.0
sg8
g30
sg10
F11.448386943832658
sg11
F0.0
sg12
Fnan
sg13
Fnan
sg14
F0.0
sg15
Fnan
sg16
F6.773080375655535
sg17
Fnan
sg18
F0.0
sg19
F0.0
sg20
F14.285289787034174
sg21
Fnan
sg22
Fnan
sg23
Fnan
sg24
F0.0
sg25
F11.299954991976355
sg26
F13.664845795261837
sg27
F14.285289787034174
ssS'BELDEN TIMOTHY N'
p252
(dp253
g3
F8.986071187374463
sg4
F14.578189864587284
sg5
F9.761635928295886
sg6
I01
sg7
F14.663280021414984
sg8
S'tim.belden@enron.com'
p254
sg10
F0.0
sg11
F0.0
sg12
F0.2231404958677686
sg13
F8.616314282284044
sg14
F0.0
sg15
F6.182084906716632
sg16
F12.258181107578269
sg17
F0.028532098610937303
sg18
F0.0
sg19
F15.473738444091598
sg20
F13.920505506810695
sg21
F5.429345628954441
sg22
F0.6909022650481792
sg23
F4.68213122712422
sg24
F11.96761873655022
sg25
F12.273726621095875
sg26
F15.520554969932036
sg27
F13.767512879694923
ssS'DURAN WILLIAM D'
p255
(dp256
g3
F6.806829360392176
sg4
F0.0
sg5
F10.157548206485059
sg6
I00
sg7
F0.0
sg8
S'w.duran@enron.com'
p257
sg10
F13.915553158543723
sg11
F0.0
sg12
F0.25
sg13
F6.395261598115449
sg14
F0.0
sg15
F2.4849066497880004
sg16
F7.357556200910353
sg17
F0.1172566371681416
sg18
F0.0
sg19
F13.527828485512494
sg20
F14.310761523961261
sg21
F4.663439094112067
sg22
F0.6626106194690266
sg23
F1.0986122886681098
sg24
F12.149719201732536
sg25
F12.25815263039561
sg26
F14.554234650485707
sg27
F14.1883622499111
ssS'THORN TERENCE H'
p258
(dp259
g3
F5.583496308781699
sg4
F9.71631424501115
sg5
F10.739543891699677
sg6
I00
sg7
F0.0
sg8
S'terence.thorn@enron.com'
p260
sg10
F12.206072645530174
sg11
F0.0
sg12
F0.0
sg13
F4.290459441148391
sg14
F0.0
sg15
F3.713572066704308
sg16
F12.963670062080672
sg17
F0.0
sg18
F0.0
sg19
F0.0
sg20
F15.387827120040116
sg21
F0.0
sg22
F0.2744360902255639
sg23
F0.0
sg24
F12.808528960805615
sg25
F12.310851492051302
sg26
F13.722795308414316
sg27
F15.30897090390122
ssS'FASTOW ANDREW S'
p261
(dp262
g3
Fnan
sg4
F0.0
sg5
F10.931695259437355
sg6
I01
sg7
F14.141972140484336
sg8
S'andrew.fastow@enron.com'
p263
sg10
F14.367125855728217
sg11
F0.0
sg12
Fnan
sg13
Fnan
sg14
F0.0
sg15
Fnan
sg16
F12.533446474023267
sg17
Fnan
sg18
F0.0
sg19
F14.077874822431765
sg20
F14.40018794963791
sg21
Fnan
sg22
Fnan
sg23
Fnan
sg24
F14.40018794963791
sg25
F12.996115112585153
sg26
F14.700963866509227
sg27
F0.0
ssS'FOY JOE'
p264
(dp265
g3
F4.04305126783455
sg4
F12.110414905333732
sg5
F0.0
sg6
I00
sg7
F0.0
sg8
S'tracy.foy@enron.com'
p266
sg10
F0.0
sg11
F0.0
sg12
F0.0
sg13
F0.6931471805599453
sg14
F0.0
sg15
F2.5649493574615367
sg16
F0.0
sg17
F0.0
sg18
F0.0
sg19
F0.0
sg20
F12.746750232445345
sg21
F0.0
sg22
F0.03508771929824561
sg23
F0.0
sg24
F0.0
sg25
F0.0
sg26
F12.110414905333732
sg27
F12.746750232445345
ssS'CALGER CHRISTOPHER F'
p267
(dp268
g3
F7.862497197230545
sg4
F0.0
sg5
F10.486205839326685
sg6
I01
sg7
F12.478006361013815
sg8
S'christopher.calger@enron.com'
p269
sg10
F12.835491643206469
sg11
F0.0
sg12
F0.1736111111111111
sg13
F7.690743163541872
sg14
F0.0
sg15
F4.969813299576001
sg16
F6.186208623900494
sg17
F0.07659738260200154
sg18
F0.0
sg19
F14.038654109278484
sg20
F11.744251448691996
sg21
F5.293304824724492
sg22
F0.8421862971516552
sg23
F3.2188758248682006
sg24
F11.744251448691996
sg25
F12.389181392408698
sg26
F14.309778049363462
sg27
F0.0
ssS'RICE KENNETH D'
p270
(dp271
g3
F6.807934943699926
sg4
F0.0
sg5
F10.75683848463641
sg6
I01
sg7
F15.069525884788623
sg8
S'ken.rice@enron.com'
p272
sg10
F14.296089941257193
sg11
F0.0
sg12
F0.2222222222222222
sg13
F6.761572768804055
sg14
F0.0
sg15
F2.8903717578961645
sg16
F12.071620829445909
sg17
F0.04640883977900553
sg18
F0.0
sg19
F14.375126345899696
sg20
F16.930914704420132
sg21
F3.7376696182833684
sg22
F0.9546961325966851
sg23
F1.3862943611198906
sg24
F14.826516383523218
sg25
F12.949523130599362
sg26
F13.132412713257331
sg27
F16.80089826046264
ssS'KAMINSKI WINCENTY J'
p273
(dp274
g3
F8.435332164935916
sg4
F0.0
sg5
F11.333619357136731
sg6
I00
sg7
F0.0
sg8
S'vince.kaminski@enron.com'
p275
sg10
F12.686849286935972
sg11
F0.0
sg12
F0.011901447661469933
sg13
F6.368187186350492
sg14
F0.0
sg15
F9.57275879054198
sg16
F8.448700194970938
sg17
F0.008899500759713479
sg18
F0.0
sg19
F12.89921982609012
sg20
F13.791255774512736
sg21
F3.713572066704308
sg22
F0.1265465595832429
sg23
F5.14166355650266
sg24
F11.744251448691996
sg25
F12.524893581947863
sg26
F13.898767479130127
sg27
F13.653003393103178
ssS'LOCKHART EUGENE E'
p276
(dp277
g3
Fnan
sg4
F0.0
sg5
F0.0
sg6
I00
sg7
F0.0
sg8
g30
sg10
F0.0
sg11
F0.0
sg12
Fnan
sg13
Fnan
sg14
F0.0
sg15
Fnan
sg16
F0.0
sg17
Fnan
sg18
F0.0
sg19
F0.0
sg20
F0.0
sg21
Fnan
sg22
Fnan
sg23
Fnan
sg24
F0.0
sg25
F0.0
sg26
F0.0
sg27
F0.0
ssS'COX DAVID'
p278
(dp279
g3
F4.624972813284271
sg4
F0.0
sg5
F10.234983140444118
sg6
I00
sg7
F10.627406391762827
sg8
S'chip.cox@enron.com'
p280
sg10
F0.0
sg11
F0.0
sg12
F0.12121212121212122
sg13
F4.2626798770413155
sg14
F0.0
sg15
F3.4965075614664802
sg16
F6.202535517187923
sg17
F0.0
sg18
F0.0
sg19
F13.592367006650065
sg20
F13.113591012476794
sg21
F0.0
sg22
F0.696078431372549
sg23
F1.3862943611198906
sg24
F12.842866382292481
sg25
F12.658065041974057
sg26
F13.912086300242837
sg27
F11.674627560950322
ssS'OVERDYKE JR JERE C'
p281
(dp282
g3
Fnan
sg4
F0.0
sg5
F9.84341902607001
sg6
I00
sg7
F0.0
sg8
S'jere.overdyke@enron.com'
p283
sg10
F11.819203554704082
sg11
F0.0
sg12
Fnan
sg13
Fnan
sg14
F0.0
sg15
Fnan
sg16
F5.170483995038151
sg17
Fnan
sg18
F0.0
sg19
F0.0
sg20
F15.804424639381212
sg21
Fnan
sg22
Fnan
sg23
Fnan
sg24
F14.528958281055719
sg25
F11.461010925018028
sg26
F12.428363833686095
sg27
F15.47689137374433
ssS'PEREIRA PAULO V. FERRAZ'
p284
(dp285
g3
Fnan
sg4
F0.0
sg5
F10.237886212210432
sg6
I00
sg7
F11.525347984968786
sg8
g30
sg10
F0.0
sg11
F0.0
sg12
Fnan
sg13
Fnan
sg14
F0.0
sg15
Fnan
sg16
F0.0
sg17
Fnan
sg18
F11.525347984968786
sg19
F0.0
sg20
F0.0
sg21
Fnan
sg22
Fnan
sg23
Fnan
sg24
F0.0
sg25
F0.0
sg26
F10.237886212210432
sg27
F0.0
ssS'STABLER FRANK'
p286
(dp287
g3
Fnan
sg4
F0.0
sg5
F9.711963784977375
sg6
I00
sg7
F0.0
sg8
S'frank.stabler@enron.com'
p288
sg10
F0.0
sg11
F0.0
sg12
Fnan
sg13
Fnan
sg14
F0.0
sg15
Fnan
sg16
F12.78288542815126
sg17
Fnan
sg18
F0.0
sg19
F13.122363377404328
sg20
F13.145560237768525
sg21
Fnan
sg22
Fnan
sg23
Fnan
sg24
F13.145560237768525
sg25
F12.386317046528928
sg26
F13.92174898814235
sg27
F0.0
ssS'SKILLING JEFFREY K'
p289
(dp290
g3
F8.196161139282902
sg4
F0.0
sg5
F10.286570709751162
sg6
I01
sg7
F0.0
sg8
S'jeff.skilling@enron.com'
p291
sg10
F14.467835744003965
sg11
F0.0
sg12
F0.2777777777777778
sg13
F7.621684998724611
sg14
F0.0
sg15
F4.68213122712422
sg16
F10.0043278674622
sg17
F0.0242624758753791
sg18
F0.0
sg19
F15.538277155705378
sg20
F17.07720339078938
sg21
F4.477336814478207
sg22
F0.5629997242900469
sg23
F3.4011973816621555
sg24
F15.738834987655824
sg25
F13.921003264884451
sg26
F15.976844940918335
sg27
F16.773021618698067
ssS'BLAKE JR. NORMAN P'
p292
(dp293
g3
Fnan
sg4
F0.0
sg5
F7.153833801578843
sg6
I00
sg7
F11.642057193250064
sg8
g30
sg10
F0.0
sg11
F0.0
sg12
Fnan
sg13
Fnan
sg14
F0.0
sg15
Fnan
sg16
F0.0
sg17
Fnan
sg18
F11.642057193250064
sg19
F0.0
sg20
F0.0
sg21
Fnan
sg22
Fnan
sg23
Fnan
sg24
F0.0
sg25
F0.0
sg26
F7.153833801578843
sg27
F0.0
ssS'SHERRICK JEFFREY B'
p294
(dp295
g3
F6.418364935936212
sg4
F0.0
sg5
F0.0
sg6
I00
sg7
F0.0
sg8
S'jeffrey.sherrick@enron.com'
p296
sg10
F0.0
sg11
F0.0
sg12
F0.72
sg13
F6.368187186350492
sg14
F0.0
sg15
F3.2188758248682006
sg16
F0.0
sg17
F0.0636215334420881
sg18
F0.0
sg19
F0.0
sg20
F14.421174250107526
sg21
F3.6635616461296463
sg22
F0.9510603588907015
sg23
F2.8903717578961645
sg24
F12.914105975526649
sg25
F0.0
sg26
F0.0
sg27
F14.170712717888868
ssS'PRENTICE JAMES'
p297
(dp298
g3
Fnan
sg4
F13.24342636147743
sg5
F0.0
sg6
I00
sg7
F0.0
sg8
S'james.prentice@enron.com'
p299
sg10
F0.0
sg11
F0.0
sg12
Fnan
sg13
Fnan
sg14
F0.0
sg15
Fnan
sg16
F0.0
sg17
Fnan
sg18
F0.0
sg19
F0.0
sg20
F13.90630145024591
sg21
Fnan
sg22
Fnan
sg23
Fnan
sg24
F12.24917523750997
sg25
F0.0
sg26
F13.24342636147743
sg27
F13.694732917952683
ssS'GRAY RODNEY'
p300
(dp301
g3
Fnan
sg4
F11.446625393212996
sg5
F0.0
sg6
I00
sg7
F0.0
sg8
g30
sg10
F12.809363496968258
sg11
F0.0
sg12
Fnan
sg13
Fnan
sg14
F0.0
sg15
Fnan
sg16
F13.431072327451982
sg17
Fnan
sg18
F0.0
sg19
F0.0
sg20
F0.0
sg21
Fnan
sg22
Fnan
sg23
Fnan
sg24
F0.0
sg25
F8.797095076549056
sg26
F13.952362182513374
sg27
F0.0
ssS'PICKERING MARK R'
p302
(dp303
g3
F6.8001700683022
sg4
F0.0
sg5
F10.362588209810202
sg6
I00
sg7
F0.0
sg8
S'mark.pickering@enron.com'
p304
sg10
F0.0
sg11
F0.0
sg12
F0.0
sg13
F6.590301048196686
sg14
F12.89921982609012
sg15
F4.204692619390966
sg16
F0.0
sg17
F0.0077951002227171495
sg18
F0.0
sg19
F12.611537753638338
sg20
F10.268061219268215
sg21
F1.9459101490553132
sg22
F0.8106904231625836
sg23
F0.0
sg24
F0.0
sg25
F13.39244700157159
sg26
F14.142430170350842
sg27
F10.268061219268215
ssS'NOLES JAMES L'
p305
(dp306
g3
Fnan
sg4
F13.559845106265985
sg5
F0.0
sg6
I00
sg7
F0.0
sg8
g30
sg10
F0.0
sg11
F11.456947530560772
sg12
Fnan
sg13
Fnan
sg14
F0.0
sg15
Fnan
sg16
F0.0
sg17
Fnan
sg18
F0.0
sg19
F0.0
sg20
F12.81775214529112
sg21
Fnan
sg22
Fnan
sg23
Fnan
sg24
F13.046045889143619
sg25
F0.0
sg26
F13.559845106265985
sg27
F0.0
ssS'KEAN STEVEN J'
p307
(dp308
g3
F9.453600226875217
sg4
F0.0
sg5
F10.644305223045162
sg6
I00
sg7
F0.0
sg8
S'steven.kean@enron.com'
p309
sg10
F12.611537753638338
sg11
F0.0
sg12
F0.05725699067909454
sg13
F8.19946419761216
sg14
F0.0
sg15
F8.818630229100354
sg16
F7.115582126184454
sg17
F0.010976948408342482
sg18
F0.0
sg19
F13.815510557964274
sg20
F15.632554659626317
sg21
F4.941642422609304
sg22
F0.2853222518425592
sg23
F5.958424693029782
sg24
F15.234173846891661
sg25
F12.91000644082379
sg26
F14.373709342424304
sg27
F14.519621417153195
ssS'FOWLER PEGGY'
p310
(dp311
g3
F6.248042874508429
sg4
F0.0
sg5
F0.0
sg6
I00
sg7
F0.0
sg8
S'kulvinder.fowler@enron.com'
p312
sg10
F0.0
sg11
F0.0
sg12
F0.0
sg13
F2.302585092994046
sg14
F0.0
sg15
F3.58351893845611
sg16
F0.0
sg17
F0.0
sg18
F0.0
sg19
F0.0
sg20
F14.449304682924693
sg21
F0.0
sg22
F0.019342359767891684
sg23
F0.0
sg24
F13.23599558807142
sg25
F0.0
sg26
F0.0
sg27
F14.09660447610753
ssS'WASAFF GEORGE'
p313
(dp314
g3
F5.991464547107982
sg4
F13.630744816583293
sg5
F0.0
sg6
I00
sg7
F13.27649977141526
sg8
S'george.wasaff@enron.com'
p315
sg10
F12.206072645530174
sg11
F0.0
sg12
F0.23333333333333334
sg13
F5.820082930352362
sg14
F0.0
sg15
F3.4011973816621555
sg16
F7.261927092702751
sg17
F0.055
sg18
F0.0
sg19
F12.691580461311874
sg20
F14.536480568818588
sg21
F3.091042453358316
sg22
F0.8425
sg23
F1.9459101490553132
sg24
F12.86919093837571
sg25
F12.468421525263937
sg26
F13.849327272708072
sg27
F14.327291725053296
ssS'WHITE JR THOMAS E'
p316
(dp317
g3
Fnan
sg4
F0.0
sg5
F11.306552989656216
sg6
I00
sg7
F0.0
sg8
S'thomas.white@enron.com'
p318
sg10
F0.0
sg11
F0.0
sg12
Fnan
sg13
Fnan
sg14
F0.0
sg15
Fnan
sg16
F13.89751718204475
sg17
Fnan
sg18
F0.0
sg19
F13.017002861746503
sg20
F16.533123093866838
sg21
Fnan
sg22
Fnan
sg23
Fnan
sg24
F16.443584504740432
sg25
F12.66836852121552
sg26
F14.475286563415397
sg27
F14.075602242076087
ssS'CHRISTODOULOU DIOMEDES'
p319
(dp320
g3
Fnan
sg4
F0.0
sg5
F0.0
sg6
I00
sg7
F0.0
sg8
S'diomedes.christodoulou@enron.com'
p321
sg10
F0.0
sg11
F0.0
sg12
Fnan
sg13
Fnan
sg14
F0.0
sg15
Fnan
sg16
F0.0
sg17
Fnan
sg18
F0.0
sg19
F0.0
sg20
F15.620167331582278
sg21
Fnan
sg22
Fnan
sg23
Fnan
sg24
F13.764985389545055
sg25
F0.0
sg26
F0.0
sg27
F15.450061482413401
ssS'ALLEN PHILLIP K'
p322
(dp323
g3
F7.973155433444133
sg4
F14.869723976602108
sg5
F9.537339306804913
sg6
I00
sg7
F14.940782628766437
sg8
S'phillip.allen@enron.com'
p324
sg10
F12.627427506859556
sg11
F11.744251448691996
sg12
F0.029612756264236904
sg13
F7.249215057114389
sg14
F0.0
sg15
F7.693937325509272
sg16
F5.0238805208462765
sg17
F0.016195727084769126
sg18
F0.0
sg19
F15.244624916267092
sg20
F14.363366613351861
sg21
F3.8501476017100584
sg22
F0.4848380427291523
sg23
F4.174387269895637
sg24
F11.744251448691996
sg25
F12.215800179288685
sg26
F15.316124631019163
sg27
F14.363366613351861
ssS'SHARP VICTORIA T'
p325
(dp326
g3
F8.0507033814703
sg4
F12.141368777390207
sg5
F11.664246430644395
sg6
I00
sg7
F0.0
sg8
S'vicki.sharp@enron.com'
p327
sg10
F12.953134930528059
sg11
F0.0
sg12
F0.04411764705882353
sg13
F7.814803429489359
sg14
F0.0
sg15
F4.912654885736052
sg16
F7.783640596221253
sg17
F0.007653061224489796
sg18
F0.0
sg19
F13.304684934198283
sg20
F13.11056606192469
sg21
F3.1780538303479458
sg22
F0.7898596938775511
sg23
F1.791759469228055
sg24
F12.269343175606751
sg25
F12.421772561602978
sg26
F14.270724735424674
sg27
F12.546369701054088
ssS'JAEDICKE ROBERT'
p328
(dp329
g3
Fnan
sg4
F0.0
sg5
F0.0
sg6
I00
sg7
F10.126631103850338
sg8
g30
sg10
F0.0
sg11
F10.694056318677243
sg12
Fnan
sg13
Fnan
sg14
F0.0
sg15
Fnan
sg16
F0.0
sg17
Fnan
sg18
F11.596806948950931
sg19
F0.0
sg20
F12.975601996008924
sg21
Fnan
sg22
Fnan
sg23
Fnan
sg24
F10.694056318677243
sg25
F0.0
sg26
F11.335591449687312
sg27
F12.975601996008924
ssS'WINOKUR JR. HERBERT S'
p330
(dp331
g3
Fnan
sg4
F0.0
sg5
F7.253470382684528
sg6
I00
sg7
F10.126631103850338
sg8
g30
sg10
F0.0
sg11
F0.0
sg12
Fnan
sg13
Fnan
sg14
F0.0
sg15
Fnan
sg16
F0.0
sg17
Fnan
sg18
F11.595233297617805
sg19
F0.0
sg20
F0.0
sg21
Fnan
sg22
Fnan
sg23
Fnan
sg24
F0.0
sg25
F0.0
sg26
F11.35031241339605
sg27
F0.0
ssS'BROWN MICHAEL'
p332
(dp333
g3
F7.303843225277705
sg4
F0.0
sg5
F10.805435922694407
sg6
I00
sg7
F0.0
sg8
S'michael.brown@enron.com'
p334
sg10
F0.0
sg11
F0.0
sg12
F0.024390243902439025
sg13
F6.634633357861686
sg14
F0.0
sg15
F3.713572066704308
sg16
F0.0
sg17
F0.008748317631224764
sg18
F0.0
sg19
F0.0
sg20
F0.0
sg21
F2.5649493574615367
sg22
F0.5121130551816958
sg23
F0.0
sg24
F0.0
sg25
F0.0
sg26
F10.805435922694407
sg27
F0.0
ssS'BADUM JAMES P'
p335
(dp336
g3
Fnan
sg4
F12.09502934673685
sg5
F8.156510226079966
sg6
I00
sg7
F0.0
sg8
g30
sg10
F0.0
sg11
F0.0
sg12
Fnan
sg13
Fnan
sg14
F0.0
sg15
Fnan
sg16
F0.0
sg17
Fnan
sg18
F0.0
sg19
F0.0
sg20
F12.460005309904263
sg21
Fnan
sg22
Fnan
sg23
Fnan
sg24
F0.0
sg25
F0.0
sg26
F12.114319133278565
sg27
F12.460005309904263
ssS'HUGHES JAMES A'
p337
(dp338
g3
F6.577861357721047
sg4
F0.0
sg5
F0.0
sg6
I00
sg7
F0.0
sg8
S'james.hughes@enron.com'
p339
sg10
F0.0
sg11
F0.0
sg12
F0.14705882352941177
sg13
F6.3784261836515865
sg14
F0.0
sg15
F3.5263605246161616
sg16
F0.0
sg17
F0.048678720445062586
sg18
F0.0
sg19
F0.0
sg20
F13.927404285640426
sg21
F3.5553480614894135
sg22
F0.8191933240611962
sg23
F1.6094379124341003
sg24
F12.803336482058556
sg25
F0.0
sg26
F0.0
sg27
F13.534427994104558
ssS'REYNOLDS LAWRENCE'
p340
(dp341
g3
Fnan
sg4
F10.846712285650364
sg5
F9.037057839832897
sg6
I00
sg7
F12.206072645530174
sg8
g30
sg10
F11.959212567598648
sg11
F11.851281640149963
sg12
Fnan
sg13
Fnan
sg14
F0.0
sg15
Fnan
sg16
F12.216280368997595
sg17
Fnan
sg18
F0.0
sg19
F11.512925464970229
sg20
F15.255793689908863
sg21
Fnan
sg22
Fnan
sg23
Fnan
sg24
F12.2134602895641
sg25
F11.243724886063715
sg26
F12.885311045903869
sg27
F15.241187157653052
ssS'DIMICHELE RICHARD G'
p342
(dp343
g3
Fnan
sg4
F0.0
sg5
F10.486038311754047
sg6
I00
sg7
F0.0
sg8
S'richard.dimichele@enron.com'
p344
sg10
F13.451468543679974
sg11
F0.0
sg12
Fnan
sg13
Fnan
sg14
F0.0
sg15
Fnan
sg16
F12.83385162753207
sg17
Fnan
sg18
F0.0
sg19
F13.815510557964274
sg20
F15.933906190718423
sg21
Fnan
sg22
Fnan
sg23
Fnan
sg24
F11.744251448691996
sg25
F12.47910290244959
sg26
F14.677620039844903
sg27
F15.918638718587633
ssS'BHATNAGAR SANJAY'
p345
(dp346
g3
F6.259581464064923
sg4
F0.0
sg5
F11.834022970961414
sg6
I00
sg7
F0.0
sg8
S'sanjay.bhatnagar@enron.com'
p347
sg10
F0.0
sg11
F14.77274743665147
sg12
F0.034482758620689655
sg13
F6.137727054086234
sg14
F0.0
sg15
F3.367295829986474
sg16
F0.0
sg17
F0.0
sg18
F0.0
sg19
F0.0
sg20
F16.553526598198374
sg21
F0.0
sg22
F0.8852772466539197
sg23
F0.0
sg24
F14.77274743665147
sg25
F0.0
sg26
F11.834022970961414
sg27
F16.553526598198374
ssS'CARTER REBECCA C'
p348
(dp349
g3
F5.7430031878094825
sg4
F0.0
sg5
F0.0
sg6
I00
sg7
F11.981628248482917
sg8
S'rebecca.carter@enron.com'
p350
sg10
F11.225243392518447
sg11
F12.63558300226232
sg12
F0.4666666666666667
sg13
F5.278114659230517
sg14
F0.0
sg15
F2.70805020110221
sg16
F6.29156913955832
sg17
F0.09294871794871795
sg18
F0.0
sg19
F12.611537753638338
sg20
F0.0
sg21
F3.367295829986474
sg22
F0.6282051282051282
sg23
F1.9459101490553132
sg24
F12.63558300226232
sg25
F12.475370509254367
sg26
F13.076438803506433
sg27
F0.0
ssS'BUCHANAN HAROLD G'
p351
(dp352
g3
F6.992096427415888
sg4
F0.0
sg5
F6.396929655216146
sg6
I00
sg7
F0.0
sg8
S'john.buchanan@enron.com'
p353
sg10
F12.627427506859556
sg11
F0.0
sg12
F0.0
sg13
F3.1354942159291497
sg14
F0.0
sg15
F4.8283137373023015
sg16
F7.102499355774649
sg17
F0.0
sg18
F0.0
sg19
F13.122363377404328
sg20
F13.829911366772086
sg21
F0.0
sg22
F0.021139705882352942
sg23
F0.0
sg24
F12.149719201732536
sg25
F12.421252571184883
sg26
F13.86870718985525
sg27
F13.623700931458005
ssS'YEAP SOON'
p354
(dp355
g3
Fnan
sg4
F0.0
sg5
F10.916850547197763
sg6
I00
sg7
F0.0
sg8
g30
sg10
F0.0
sg11
F0.0
sg12
Fnan
sg13
Fnan
sg14
F0.0
sg15
Fnan
sg16
F0.0
sg17
Fnan
sg18
F0.0
sg19
F0.0
sg20
F12.169190795103844
sg21
Fnan
sg22
Fnan
sg23
Fnan
sg24
F0.0
sg25
F0.0
sg26
F10.916850547197763
sg27
F12.169190795103844
ssS'MURRAY JULIA H'
p356
(dp357
g3
F7.692569648067906
sg4
F0.0
sg5
F10.960930564166167
sg6
I00
sg7
F0.0
sg8
S'julia.murray@enron.com'
p358
sg10
F11.736069016284437
sg11
F0.0
sg12
F0.044444444444444446
sg13
F5.978885764901122
sg14
F0.0
sg15
F3.8066624897703196
sg16
F5.799092654460526
sg17
F0.005018248175182482
sg18
F0.0
sg19
F12.89921982609012
sg20
F13.300444288690969
sg21
F2.3978952727983707
sg22
F0.1802007299270073
sg23
F0.6931471805599453
sg24
F12.190872709580304
sg25
F12.342716688827476
sg26
F13.607494506864029
sg27
F12.90041411264594
ssS'GARLAND C KEVIN'
p359
(dp360
g3
F5.342334251964811
sg4
F0.0
sg5
F10.787358393154172
sg6
I00
sg7
F0.0
sg8
S'kevin.garland@enron.com'
p361
sg10
F12.835491643206469
sg11
F0.0
sg12
F0.6136363636363636
sg13
F5.181783550292085
sg14
F0.0
sg15
F3.784189633918261
sg16
F11.015575304605662
sg17
F0.04784688995215311
sg18
F0.0
sg19
F13.652991628466498
sg20
F13.705866436307993
sg21
F2.302585092994046
sg22
F0.8516746411483254
sg23
F3.295836866004329
sg24
F12.46807915370282
sg25
F12.354259864935266
sg26
F14.26433459983928
sg27
F13.363340559990172
ssS'DODSON KEITH'
p362
(dp363
g3
F5.170483995038151
sg4
F0.0
sg5
F10.245799845639024
sg6
I00
sg7
F0.0
sg8
S'keith.dodson@enron.com'
p364
sg10
F0.0
sg11
F0.0
sg12
F0.21428571428571427
sg13
F4.736198448394496
sg14
F0.0
sg15
F2.6390573296152584
sg16
F6.651571873589727
sg17
F0.056818181818181816
sg18
F0.0
sg19
F11.156250521031495
sg20
F0.0
sg21
F2.302585092994046
sg22
F0.6477272727272727
sg23
F1.0986122886681098
sg24
F0.0
sg25
F12.305931555068389
sg26
F12.67589188277675
sg27
F0.0
ssS'YEAGER F SCOTT'
p365
(dp366
g3
Fnan
sg4
F0.0
sg5
F10.895757362096592
sg6
I01
sg7
F0.0
sg8
S'scott.yeager@enron.com'
p367
sg10
F0.0
sg11
F0.0
sg12
Fnan
sg13
Fnan
sg14
F0.0
sg15
Fnan
sg16
F11.904629657828355
sg17
Fnan
sg18
F0.0
sg19
F0.0
sg20
F16.29076729676854
sg21
Fnan
sg22
Fnan
sg23
Fnan
sg24
F15.089813019880348
sg25
F11.972897697577054
sg26
F12.794692296736185
sg27
F15.932795903754599
ssS'HIRKO JOSEPH'
p368
(dp369
g3
Fnan
sg4
F9.235910648087712
sg5
F11.264182014605733
sg6
I01
sg7
F0.0
sg8
S'joe.hirko@enron.com'
p370
sg10
F0.0
sg11
F0.0
sg12
Fnan
sg13
Fnan
sg14
F0.0
sg15
Fnan
sg16
F7.957177323459475
sg17
Fnan
sg18
F0.0
sg19
F0.0
sg20
F17.24192282231409
sg21
Fnan
sg22
Fnan
sg23
Fnan
sg24
F0.0
sg25
F0.0
sg26
F11.419636241656951
sg27
F17.24192282231409
ssS'DIETRICH JANET R'
p371
(dp372
g3
F7.85243908535751
sg4
F0.0
sg5
F8.153349757998892
sg6
I00
sg7
F0.0
sg8
S'janet.dietrich@enron.com'
p373
sg10
F13.22927149490841
sg11
F0.0
sg12
F0.2222222222222222
sg13
F7.550661243105336
sg14
F0.0
sg15
F4.143134726391533
sg16
F6.159095388491933
sg17
F0.11858475894245724
sg18
F0.0
sg19
F13.304684934198283
sg20
F14.438818258765597
sg21
F5.720311776607412
sg22
F0.73950233281493
sg23
F2.6390573296152584
sg24
F12.660543767526416
sg25
F12.429616116865711
sg26
F14.159429286234241
sg27
F14.253777746884817
ssS'DERRICK JR. JAMES V'
p374
(dp375
g3
F7.687538766201629
sg4
F0.0
sg5
F10.842009333251605
sg6
I00
sg7
F14.065490763232043
sg8
S'james.derrick@enron.com'
p376
sg10
F13.089840185698769
sg11
F14.396261418429654
sg12
F0.022002200220022004
sg13
F7.244941546337007
sg14
F0.0
sg15
F6.812345094177479
sg16
F8.920255414908091
sg17
F0.029344337459880788
sg18
F0.0
sg19
F13.592367006650065
sg20
F15.993882196907018
sg21
F4.1588830833596715
sg22
F0.6423658872077029
sg23
F2.995732273553991
sg24
F14.396261418429654
sg25
F13.106995900273207
sg26
F13.219455604781887
sg27
F15.993882196907018
ssS'FREVERT MARK A'
p377
(dp378
g3
F8.094073148069352
sg4
F15.676016868416317
sg5
F11.373513961184294
sg6
I00
sg7
F15.029535965141141
sg8
S'mark.frevert@enron.com'
p379
sg10
F14.296089941257193
sg11
F0.0
sg12
F0.2857142857142857
sg13
F7.999342952713282
sg14
F14.508657738524219
sg15
F3.044522437723423
sg16
F15.820716176997381
sg17
F0.07389312977099237
sg18
F0.0
sg19
F14.508657738524219
sg20
F16.498050453923327
sg21
F5.488937726156687
sg22
F0.909618320610687
sg23
F1.791759469228055
sg24
F15.247893102856736
sg25
F13.874658325061558
sg26
F16.663469357353804
sg27
F16.160534066366147
ssS'PAI LOU L'
p380
(dp381
g3
Fnan
sg4
F0.0
sg5
F10.374958854223562
sg6
I00
sg7
F0.0
sg8
S'lou.pai@enron.com'
p382
sg10
F0.0
sg11
F0.0
sg12
Fnan
sg13
Fnan
sg14
F0.0
sg15
Fnan
sg16
F14.41952975947565
sg17
Fnan
sg18
F0.0
sg19
F13.815510557964274
sg20
F16.985949216352026
sg21
Fnan
sg22
Fnan
sg23
Fnan
sg24
F15.950122225649196
sg25
F12.475637844004893
sg26
F14.954427267234363
sg27
F16.547548537954075
ssS'BAY FRANKLIN R'
p383
(dp384
g3
Fnan
sg4
F12.470185380531781
sg5
F11.768667853128832
sg6
I00
sg7
F12.214244167517736
sg8
S'frank.bay@enron.com'
p385
sg10
F0.0
sg11
F11.323965925436088
sg12
Fnan
sg13
Fnan
sg14
F0.0
sg15
Fnan
sg16
F4.23410650459726
sg17
Fnan
sg18
F0.0
sg19
F12.89921982609012
sg20
F11.051112202908191
sg21
Fnan
sg22
Fnan
sg23
Fnan
sg24
F11.889963663338103
sg25
F12.387022428539215
sg26
F13.626401216192969
sg27
F0.0
ssS'HAYSLETT RODERICK J'
p386
(dp387
g3
F7.88193748927207
sg4
F0.0
sg5
F0.0
sg6
I00
sg7
F0.0
sg8
S'rod.hayslett@enron.com'
p388
sg10
F0.0
sg11
F0.0
sg12
F0.03581526861451461
sg13
F6.3473892096560105
sg14
F0.0
sg15
F6.966967138613983
sg16
F0.0
sg17
F0.01321253303133258
sg18
F0.0
sg19
F0.0
sg20
F12.756108405470433
sg21
F3.5553480614894135
sg22
F0.21555303888259722
sg23
F3.6375861597263857
sg24
F12.756108405470433
sg25
F0.0
sg26
F0.0
sg27
F0.0
ssS'FUGH JOHN L'
p389
(dp390
g3
Fnan
sg4
F10.831528973842945
sg5
F0.0
sg6
I00
sg7
F0.0
sg8
g30
sg10
F0.0
sg11
F0.0
sg12
Fnan
sg13
Fnan
sg14
F0.0
sg15
Fnan
sg16
F0.0
sg17
Fnan
sg18
F0.0
sg19
F0.0
sg20
F12.080384698223783
sg21
Fnan
sg22
Fnan
sg23
Fnan
sg24
F0.0
sg25
F0.0
sg26
F10.831528973842945
sg27
F12.080384698223783
ssS'FALLON JAMES B'
p391
(dp392
g3
F7.470224135899966
sg4
F0.0
sg5
F11.471311490249764
sg6
I00
sg7
F0.0
sg8
S'jim.fallon@enron.com'
p393
sg10
F12.832938453735975
sg11
F0.0
sg12
F0.49333333333333335
sg13
F7.38025578842646
sg14
F0.0
sg15
F4.31748811353631
sg16
F12.902915488708734
sg17
F0.023931623931623933
sg18
F0.0
sg19
F14.73180128983843
sg20
F14.66240790958712
sg21
F3.7376696182833684
sg22
F0.913960113960114
sg23
F3.6109179126442243
sg24
F14.146354126167937
sg25
F12.626715322738072
sg26
F15.117428250019564
sg27
F13.753908521133374
ssS'KOENIG MARK E'
p394
(dp395
g3
F7.772331575169614
sg4
F0.0
sg5
F11.752076214750227
sg6
I01
sg7
F0.0
sg8
S'mark.koenig@enron.com'
p396
sg10
F12.611537753638338
sg11
F0.0
sg12
F0.2459016393442623
sg13
F7.7279755421055585
sg14
F0.0
sg15
F4.110873864173311
sg16
F11.921439254456413
sg17
F0.02232518955349621
sg18
F0.0
sg19
F13.458835614025542
sg20
F14.467864389427014
sg21
F3.970291913552122
sg22
F0.9566133108677338
sg23
F2.70805020110221
sg24
F14.037307603145852
sg25
F12.644153367739484
sg26
F14.277621244731199
sg27
F13.417622173852815
ssS'SAVAGE FRANK'
p397
(dp398
g3
Fnan
sg4
F0.0
sg5
F0.0
sg6
I00
sg7
F11.705890181862664
sg8
g30
sg10
F0.0
sg11
F0.0
sg12
Fnan
sg13
Fnan
sg14
F0.0
sg15
Fnan
sg16
F0.0
sg17
Fnan
sg18
F11.736340979299145
sg19
F0.0
sg20
F0.0
sg21
Fnan
sg22
Fnan
sg23
Fnan
sg24
F0.0
sg25
F0.0
sg26
F8.229511118964457
sg27
F0.0
ssS'IZZO LAWRENCE L'
p399
(dp400
g3
F6.206575926724928
sg4
F0.0
sg5
F10.243275713968423
sg6
I00
sg7
F0.0
sg8
S'larry.izzo@enron.com'
p401
sg10
F12.652359748158593
sg11
F0.0
sg12
F0.2631578947368421
sg13
F6.07993319509559
sg14
F0.0
sg15
F2.9444389791664403
sg16
F14.256168406027868
sg17
F0.056451612903225805
sg18
F0.0
sg19
F0.0
sg20
F15.576807383275598
sg21
F3.332204510175204
sg22
F0.8810483870967742
sg23
F1.6094379124341003
sg24
F15.111554119006472
sg25
F11.353624880451743
sg26
F14.498403341447602
sg27
F14.588010361990566
ssS'TILNEY ELIZABETH A'
p402
(dp403
g3
F6.131226489483141
sg4
F0.0
sg5
F0.0
sg6
I00
sg7
F13.262125319779487
sg8
S'elizabeth.tilney@enron.com'
p404
sg10
F12.524526376648708
sg11
F0.0
sg12
F0.5789473684210527
sg13
F5.937536205082426
sg14
F0.0
sg15
F2.9444389791664403
sg16
F11.93199757648461
sg17
F0.021739130434782608
sg18
F0.0
sg19
F12.611537753638338
sg20
F13.970839400627913
sg21
F2.302585092994046
sg22
F0.8239130434782609
sg23
F2.3978952727983707
sg24
F13.265236995231172
sg25
F12.418511101227939
sg26
F12.897701173520831
sg27
F13.28999421878828
ssS'MARTIN AMANDA K'
p405
(dp406
g3
F7.3277805384216315
sg4
F11.355452606145665
sg5
F9.01322999770879
sg6
I00
sg7
F0.0
sg8
S'a..martin@enron.com'
p407
sg10
F15.453620277434206
sg11
F0.0
sg12
F0.0
sg13
F6.1675164908883415
sg14
F0.0
sg15
F5.438079308923196
sg16
F14.851699065632602
sg17
F0.005256241787122208
sg18
F0.0
sg19
F0.0
sg20
F14.543206980403308
sg21
F2.0794415416798357
sg22
F0.31340341655716164
sg23
F0.0
sg24
F0.0
sg25
F12.764221643969936
sg26
F15.944577153291547
sg27
F14.543206980403308
ssS'BUY RICHARD B'
p408
(dp409
g3
F8.167068178341237
sg4
F13.384087436984396
sg5
F0.0
sg6
I00
sg7
F13.451468543679974
sg8
S'rick.buy@enron.com'
p410
sg10
F13.553966556988684
sg11
F0.0
sg12
F0.06742640075973409
sg13
F7.75491027202143
sg14
F0.0
sg15
F6.959398512133975
sg16
F12.90064880461381
sg17
F0.04428044280442804
sg18
F0.0
sg19
F13.710150042306449
sg20
F15.052280604440517
sg21
F5.049856007249537
sg22
F0.6622196991200682
sg23
F4.2626798770413155
sg24
F13.711989460649894
sg25
F12.708501111644791
sg26
F14.672349330184879
sg27
F14.74878150650576
ssS'GRAMM WENDY L'
p411
(dp412
g3
Fnan
sg4
F0.0
sg5
F0.0
sg6
I00
sg7
F0.0
sg8
g30
sg10
F0.0
sg11
F0.0
sg12
Fnan
sg13
Fnan
sg14
F0.0
sg15
Fnan
sg16
F0.0
sg17
Fnan
sg18
F11.689329548000146
sg19
F0.0
sg20
F0.0
sg21
Fnan
sg22
Fnan
sg23
Fnan
sg24
F0.0
sg25
F0.0
sg26
F11.689329548000146
sg27
F0.0
ssS'CAUSEY RICHARD A'
p413
(dp414
g3
F7.545389749611823
sg4
F0.0
sg5
F10.331170669210724
sg6
I01
sg7
F12.367340793126296
sg8
S'richard.causey@enron.com'
p415
sg10
F12.765688433465597
sg11
F0.0
sg12
F0.24489795918367346
sg13
F7.368339686311381
sg14
F0.0
sg15
F3.8918202981106265
sg16
F12.637514094742087
sg17
F0.0306553911205074
sg18
F0.0
sg19
F13.815510557964274
sg20
F14.732626149548102
sg21
F4.060443010546419
sg22
F0.837737843551797
sg23
F2.4849066497880004
sg24
F14.732626149548102
sg25
F12.936489117226602
sg26
F14.440784597048426
sg27
F0.0
ssS'TAYLOR MITCHELL S'
p416
(dp417
g3
F6.278521424165844
sg4
F12.33468131641781
sg5
F0.0
sg6
I00
sg7
F0.0
sg8
S'mitchell.taylor@enron.com'
p418
sg10
F0.0
sg11
F0.0
sg12
F0.0
sg13
F5.703782474656201
sg14
F0.0
sg15
F3.367295829986474
sg16
F0.0
sg17
F0.0
sg18
F0.0
sg19
F13.304684934198283
sg20
F15.135944991940772
sg21
F0.0
sg22
F0.5628517823639775
sg23
F0.0
sg24
F13.24245131029864
sg25
F12.488292326247391
sg26
F13.904128393907474
sg27
F14.97278475928097
ssS'DONAHUE JR JEFFREY M'
p419
(dp420
g3
F6.762729506931879
sg4
F0.0
sg5
F11.474891247652295
sg6
I00
sg7
F12.611537753638338
sg8
S'jeff.donahue@enron.com'
p421
sg10
F0.0
sg11
F0.0
sg12
F0.5
sg13
F6.648984550024776
sg14
F0.0
sg15
F3.091042453358316
sg16
F6.792344427470809
sg17
F0.21734104046242775
sg18
F0.0
sg19
F13.592367006650065
sg20
F13.893385995727169
sg21
F5.236441962829949
sg22
F0.892485549132948
sg23
F2.3978952727983707
sg24
F12.660543767526416
sg25
F12.53753592969685
sg26
F13.682847359778439
sg27
F13.548833004626337
ssS'GLISAN JR BEN F'
p422
(dp423
g3
F6.771935555839602
sg4
F0.0
sg5
F11.743862567514103
sg6
I01
sg7
F0.0
sg8
S'ben.glisan@enron.com'
p424
sg10
F11.170759047227005
sg11
F0.0
sg12
F0.375
sg13
F6.773080375655535
sg14
F0.0
sg15
F2.772588722239781
sg16
F12.207611460946191
sg17
F0.05956471935853379
sg18
F0.0
sg19
F13.304684934198283
sg20
F13.565183356500288
sg21
F3.9512437185814275
sg22
F1.0011454753722795
sg23
F1.791759469228055
sg24
F12.883644152624024
sg25
F12.524435463425318
sg26
F14.05632426840132
sg27
F12.860291870079283
ss.